
./Release/407_template.elf:     file format elf32-littlearm

Sections:
Idx Name          Size      VMA       LMA       File off  Algn
  0 .isr_vector   00000188  08000000  08000000  00010000  2**0
                  CONTENTS, ALLOC, LOAD, READONLY, DATA
  1 .text         00004a38  08000188  08000188  00010188  2**2
                  CONTENTS, ALLOC, LOAD, READONLY, CODE
  2 .rodata       00000124  08004bc0  08004bc0  00014bc0  2**2
                  CONTENTS, ALLOC, LOAD, READONLY, DATA
  3 .ARM.extab    00000000  08004ce4  08004ce4  00020038  2**0
                  CONTENTS
  4 .ARM          00000000  08004ce4  08004ce4  00020038  2**0
                  CONTENTS
  5 .preinit_array 00000000  08004ce4  08004ce4  00020038  2**0
                  CONTENTS, ALLOC, LOAD, DATA
  6 .init_array   00000004  08004ce4  08004ce4  00014ce4  2**2
                  CONTENTS, ALLOC, LOAD, DATA
  7 .fini_array   00000004  08004ce8  08004ce8  00014ce8  2**2
                  CONTENTS, ALLOC, LOAD, DATA
  8 .data         00000038  20000000  08004cec  00020000  2**2
                  CONTENTS, ALLOC, LOAD, DATA
  9 .bss          00009a04  20000038  08004d24  00020038  2**2
                  ALLOC
 10 ._user_heap_stack 00000604  20009a3c  08004d24  00029a3c  2**0
                  ALLOC
 11 .ARM.attributes 0000002a  00000000  00000000  00020038  2**0
                  CONTENTS, READONLY
 12 .comment      00000033  00000000  00000000  00020062  2**0
                  CONTENTS, READONLY
 13 .debug_info   00000277  00000000  00000000  00020095  2**0
                  CONTENTS, READONLY, DEBUGGING, OCTETS
 14 .debug_abbrev 00000194  00000000  00000000  0002030c  2**0
                  CONTENTS, READONLY, DEBUGGING, OCTETS
 15 .debug_loc    000002e6  00000000  00000000  000204a0  2**0
                  CONTENTS, READONLY, DEBUGGING, OCTETS
 16 .debug_aranges 00000060  00000000  00000000  00020788  2**3
                  CONTENTS, READONLY, DEBUGGING, OCTETS
 17 .debug_line   000003b5  00000000  00000000  000207e8  2**0
                  CONTENTS, READONLY, DEBUGGING, OCTETS
 18 .debug_str    0000032d  00000000  00000000  00020b9d  2**0
                  CONTENTS, READONLY, DEBUGGING, OCTETS
 19 .debug_frame  00000058  00000000  00000000  00020ecc  2**2
                  CONTENTS, READONLY, DEBUGGING, OCTETS

Disassembly of section .text:

08000188 <deregister_tm_clones>:
 8000188:	4803      	ldr	r0, [pc, #12]	; (8000198 <deregister_tm_clones+0x10>)
 800018a:	4b04      	ldr	r3, [pc, #16]	; (800019c <deregister_tm_clones+0x14>)
 800018c:	4283      	cmp	r3, r0
 800018e:	d002      	beq.n	8000196 <deregister_tm_clones+0xe>
 8000190:	4b03      	ldr	r3, [pc, #12]	; (80001a0 <deregister_tm_clones+0x18>)
 8000192:	b103      	cbz	r3, 8000196 <deregister_tm_clones+0xe>
 8000194:	4718      	bx	r3
 8000196:	4770      	bx	lr
 8000198:	20000038 	.word	0x20000038
 800019c:	20000038 	.word	0x20000038
 80001a0:	00000000 	.word	0x00000000

080001a4 <register_tm_clones>:
 80001a4:	4805      	ldr	r0, [pc, #20]	; (80001bc <register_tm_clones+0x18>)
 80001a6:	4906      	ldr	r1, [pc, #24]	; (80001c0 <register_tm_clones+0x1c>)
 80001a8:	1a0b      	subs	r3, r1, r0
 80001aa:	0fd9      	lsrs	r1, r3, #31
 80001ac:	eb01 01a3 	add.w	r1, r1, r3, asr #2
 80001b0:	1049      	asrs	r1, r1, #1
 80001b2:	d002      	beq.n	80001ba <register_tm_clones+0x16>
 80001b4:	4b03      	ldr	r3, [pc, #12]	; (80001c4 <register_tm_clones+0x20>)
 80001b6:	b103      	cbz	r3, 80001ba <register_tm_clones+0x16>
 80001b8:	4718      	bx	r3
 80001ba:	4770      	bx	lr
 80001bc:	20000038 	.word	0x20000038
 80001c0:	20000038 	.word	0x20000038
 80001c4:	00000000 	.word	0x00000000

080001c8 <__do_global_dtors_aux>:
 80001c8:	b510      	push	{r4, lr}
 80001ca:	4c06      	ldr	r4, [pc, #24]	; (80001e4 <__do_global_dtors_aux+0x1c>)
 80001cc:	7823      	ldrb	r3, [r4, #0]
 80001ce:	b943      	cbnz	r3, 80001e2 <__do_global_dtors_aux+0x1a>
 80001d0:	f7ff ffda 	bl	8000188 <deregister_tm_clones>
 80001d4:	4b04      	ldr	r3, [pc, #16]	; (80001e8 <__do_global_dtors_aux+0x20>)
 80001d6:	b113      	cbz	r3, 80001de <__do_global_dtors_aux+0x16>
 80001d8:	4804      	ldr	r0, [pc, #16]	; (80001ec <__do_global_dtors_aux+0x24>)
 80001da:	f3af 8000 	nop.w
 80001de:	2301      	movs	r3, #1
 80001e0:	7023      	strb	r3, [r4, #0]
 80001e2:	bd10      	pop	{r4, pc}
 80001e4:	20000038 	.word	0x20000038
 80001e8:	00000000 	.word	0x00000000
 80001ec:	08004ba8 	.word	0x08004ba8

080001f0 <frame_dummy>:
 80001f0:	b508      	push	{r3, lr}
 80001f2:	4b04      	ldr	r3, [pc, #16]	; (8000204 <frame_dummy+0x14>)
 80001f4:	b11b      	cbz	r3, 80001fe <frame_dummy+0xe>
 80001f6:	4904      	ldr	r1, [pc, #16]	; (8000208 <frame_dummy+0x18>)
 80001f8:	4804      	ldr	r0, [pc, #16]	; (800020c <frame_dummy+0x1c>)
 80001fa:	f3af 8000 	nop.w
 80001fe:	e8bd 4008 	ldmia.w	sp!, {r3, lr}
 8000202:	e7cf      	b.n	80001a4 <register_tm_clones>
 8000204:	00000000 	.word	0x00000000
 8000208:	2000003c 	.word	0x2000003c
 800020c:	08004ba8 	.word	0x08004ba8

08000210 <__libc_init_array>:
 8000210:	b570      	push	{r4, r5, r6, lr}
 8000212:	4e0d      	ldr	r6, [pc, #52]	; (8000248 <__libc_init_array+0x38>)
 8000214:	4d0d      	ldr	r5, [pc, #52]	; (800024c <__libc_init_array+0x3c>)
 8000216:	1b76      	subs	r6, r6, r5
 8000218:	10b6      	asrs	r6, r6, #2
 800021a:	d006      	beq.n	800022a <__libc_init_array+0x1a>
 800021c:	2400      	movs	r4, #0
 800021e:	f855 3b04 	ldr.w	r3, [r5], #4
 8000222:	3401      	adds	r4, #1
 8000224:	4798      	blx	r3
 8000226:	42a6      	cmp	r6, r4
 8000228:	d1f9      	bne.n	800021e <__libc_init_array+0xe>
 800022a:	4e09      	ldr	r6, [pc, #36]	; (8000250 <__libc_init_array+0x40>)
 800022c:	4d09      	ldr	r5, [pc, #36]	; (8000254 <__libc_init_array+0x44>)
 800022e:	1b76      	subs	r6, r6, r5
 8000230:	f004 fcba 	bl	8004ba8 <_init>
 8000234:	10b6      	asrs	r6, r6, #2
 8000236:	d006      	beq.n	8000246 <__libc_init_array+0x36>
 8000238:	2400      	movs	r4, #0
 800023a:	f855 3b04 	ldr.w	r3, [r5], #4
 800023e:	3401      	adds	r4, #1
 8000240:	4798      	blx	r3
 8000242:	42a6      	cmp	r6, r4
 8000244:	d1f9      	bne.n	800023a <__libc_init_array+0x2a>
 8000246:	bd70      	pop	{r4, r5, r6, pc}
 8000248:	08004ce4 	.word	0x08004ce4
 800024c:	08004ce4 	.word	0x08004ce4
 8000250:	08004ce8 	.word	0x08004ce8
 8000254:	08004ce4 	.word	0x08004ce4

08000258 <memcpy>:
 8000258:	4684      	mov	ip, r0
 800025a:	ea41 0300 	orr.w	r3, r1, r0
 800025e:	f013 0303 	ands.w	r3, r3, #3
 8000262:	d16d      	bne.n	8000340 <memcpy+0xe8>
 8000264:	3a40      	subs	r2, #64	; 0x40
 8000266:	d341      	bcc.n	80002ec <memcpy+0x94>
 8000268:	f851 3b04 	ldr.w	r3, [r1], #4
 800026c:	f840 3b04 	str.w	r3, [r0], #4
 8000270:	f851 3b04 	ldr.w	r3, [r1], #4
 8000274:	f840 3b04 	str.w	r3, [r0], #4
 8000278:	f851 3b04 	ldr.w	r3, [r1], #4
 800027c:	f840 3b04 	str.w	r3, [r0], #4
 8000280:	f851 3b04 	ldr.w	r3, [r1], #4
 8000284:	f840 3b04 	str.w	r3, [r0], #4
 8000288:	f851 3b04 	ldr.w	r3, [r1], #4
 800028c:	f840 3b04 	str.w	r3, [r0], #4
 8000290:	f851 3b04 	ldr.w	r3, [r1], #4
 8000294:	f840 3b04 	str.w	r3, [r0], #4
 8000298:	f851 3b04 	ldr.w	r3, [r1], #4
 800029c:	f840 3b04 	str.w	r3, [r0], #4
 80002a0:	f851 3b04 	ldr.w	r3, [r1], #4
 80002a4:	f840 3b04 	str.w	r3, [r0], #4
 80002a8:	f851 3b04 	ldr.w	r3, [r1], #4
 80002ac:	f840 3b04 	str.w	r3, [r0], #4
 80002b0:	f851 3b04 	ldr.w	r3, [r1], #4
 80002b4:	f840 3b04 	str.w	r3, [r0], #4
 80002b8:	f851 3b04 	ldr.w	r3, [r1], #4
 80002bc:	f840 3b04 	str.w	r3, [r0], #4
 80002c0:	f851 3b04 	ldr.w	r3, [r1], #4
 80002c4:	f840 3b04 	str.w	r3, [r0], #4
 80002c8:	f851 3b04 	ldr.w	r3, [r1], #4
 80002cc:	f840 3b04 	str.w	r3, [r0], #4
 80002d0:	f851 3b04 	ldr.w	r3, [r1], #4
 80002d4:	f840 3b04 	str.w	r3, [r0], #4
 80002d8:	f851 3b04 	ldr.w	r3, [r1], #4
 80002dc:	f840 3b04 	str.w	r3, [r0], #4
 80002e0:	f851 3b04 	ldr.w	r3, [r1], #4
 80002e4:	f840 3b04 	str.w	r3, [r0], #4
 80002e8:	3a40      	subs	r2, #64	; 0x40
 80002ea:	d2bd      	bcs.n	8000268 <memcpy+0x10>
 80002ec:	3230      	adds	r2, #48	; 0x30
 80002ee:	d311      	bcc.n	8000314 <memcpy+0xbc>
 80002f0:	f851 3b04 	ldr.w	r3, [r1], #4
 80002f4:	f840 3b04 	str.w	r3, [r0], #4
 80002f8:	f851 3b04 	ldr.w	r3, [r1], #4
 80002fc:	f840 3b04 	str.w	r3, [r0], #4
 8000300:	f851 3b04 	ldr.w	r3, [r1], #4
 8000304:	f840 3b04 	str.w	r3, [r0], #4
 8000308:	f851 3b04 	ldr.w	r3, [r1], #4
 800030c:	f840 3b04 	str.w	r3, [r0], #4
 8000310:	3a10      	subs	r2, #16
 8000312:	d2ed      	bcs.n	80002f0 <memcpy+0x98>
 8000314:	320c      	adds	r2, #12
 8000316:	d305      	bcc.n	8000324 <memcpy+0xcc>
 8000318:	f851 3b04 	ldr.w	r3, [r1], #4
 800031c:	f840 3b04 	str.w	r3, [r0], #4
 8000320:	3a04      	subs	r2, #4
 8000322:	d2f9      	bcs.n	8000318 <memcpy+0xc0>
 8000324:	3204      	adds	r2, #4
 8000326:	d008      	beq.n	800033a <memcpy+0xe2>
 8000328:	07d2      	lsls	r2, r2, #31
 800032a:	bf1c      	itt	ne
 800032c:	f811 3b01 	ldrbne.w	r3, [r1], #1
 8000330:	f800 3b01 	strbne.w	r3, [r0], #1
 8000334:	d301      	bcc.n	800033a <memcpy+0xe2>
 8000336:	880b      	ldrh	r3, [r1, #0]
 8000338:	8003      	strh	r3, [r0, #0]
 800033a:	4660      	mov	r0, ip
 800033c:	4770      	bx	lr
 800033e:	bf00      	nop
 8000340:	2a08      	cmp	r2, #8
 8000342:	d313      	bcc.n	800036c <memcpy+0x114>
 8000344:	078b      	lsls	r3, r1, #30
 8000346:	d08d      	beq.n	8000264 <memcpy+0xc>
 8000348:	f010 0303 	ands.w	r3, r0, #3
 800034c:	d08a      	beq.n	8000264 <memcpy+0xc>
 800034e:	f1c3 0304 	rsb	r3, r3, #4
 8000352:	1ad2      	subs	r2, r2, r3
 8000354:	07db      	lsls	r3, r3, #31
 8000356:	bf1c      	itt	ne
 8000358:	f811 3b01 	ldrbne.w	r3, [r1], #1
 800035c:	f800 3b01 	strbne.w	r3, [r0], #1
 8000360:	d380      	bcc.n	8000264 <memcpy+0xc>
 8000362:	f831 3b02 	ldrh.w	r3, [r1], #2
 8000366:	f820 3b02 	strh.w	r3, [r0], #2
 800036a:	e77b      	b.n	8000264 <memcpy+0xc>
 800036c:	3a04      	subs	r2, #4
 800036e:	d3d9      	bcc.n	8000324 <memcpy+0xcc>
 8000370:	3a01      	subs	r2, #1
 8000372:	f811 3b01 	ldrb.w	r3, [r1], #1
 8000376:	f800 3b01 	strb.w	r3, [r0], #1
 800037a:	d2f9      	bcs.n	8000370 <memcpy+0x118>
 800037c:	780b      	ldrb	r3, [r1, #0]
 800037e:	7003      	strb	r3, [r0, #0]
 8000380:	784b      	ldrb	r3, [r1, #1]
 8000382:	7043      	strb	r3, [r0, #1]
 8000384:	788b      	ldrb	r3, [r1, #2]
 8000386:	7083      	strb	r3, [r0, #2]
 8000388:	4660      	mov	r0, ip
 800038a:	4770      	bx	lr

0800038c <memset>:
 800038c:	0783      	lsls	r3, r0, #30
 800038e:	b530      	push	{r4, r5, lr}
 8000390:	d048      	beq.n	8000424 <memset+0x98>
 8000392:	1e54      	subs	r4, r2, #1
 8000394:	2a00      	cmp	r2, #0
 8000396:	d03f      	beq.n	8000418 <memset+0x8c>
 8000398:	b2ca      	uxtb	r2, r1
 800039a:	4603      	mov	r3, r0
 800039c:	e001      	b.n	80003a2 <memset+0x16>
 800039e:	3c01      	subs	r4, #1
 80003a0:	d33a      	bcc.n	8000418 <memset+0x8c>
 80003a2:	f803 2b01 	strb.w	r2, [r3], #1
 80003a6:	079d      	lsls	r5, r3, #30
 80003a8:	d1f9      	bne.n	800039e <memset+0x12>
 80003aa:	2c03      	cmp	r4, #3
 80003ac:	d92d      	bls.n	800040a <memset+0x7e>
 80003ae:	b2cd      	uxtb	r5, r1
 80003b0:	ea45 2505 	orr.w	r5, r5, r5, lsl #8
 80003b4:	2c0f      	cmp	r4, #15
 80003b6:	ea45 4505 	orr.w	r5, r5, r5, lsl #16
 80003ba:	d936      	bls.n	800042a <memset+0x9e>
 80003bc:	f1a4 0210 	sub.w	r2, r4, #16
 80003c0:	f022 0c0f 	bic.w	ip, r2, #15
 80003c4:	f103 0e20 	add.w	lr, r3, #32
 80003c8:	44e6      	add	lr, ip
 80003ca:	ea4f 1c12 	mov.w	ip, r2, lsr #4
 80003ce:	f103 0210 	add.w	r2, r3, #16
 80003d2:	e942 5504 	strd	r5, r5, [r2, #-16]
 80003d6:	e942 5502 	strd	r5, r5, [r2, #-8]
 80003da:	3210      	adds	r2, #16
 80003dc:	4572      	cmp	r2, lr
 80003de:	d1f8      	bne.n	80003d2 <memset+0x46>
 80003e0:	f10c 0201 	add.w	r2, ip, #1
 80003e4:	f014 0f0c 	tst.w	r4, #12
 80003e8:	eb03 1202 	add.w	r2, r3, r2, lsl #4
 80003ec:	f004 0c0f 	and.w	ip, r4, #15
 80003f0:	d013      	beq.n	800041a <memset+0x8e>
 80003f2:	f1ac 0304 	sub.w	r3, ip, #4
 80003f6:	f023 0303 	bic.w	r3, r3, #3
 80003fa:	3304      	adds	r3, #4
 80003fc:	4413      	add	r3, r2
 80003fe:	f842 5b04 	str.w	r5, [r2], #4
 8000402:	4293      	cmp	r3, r2
 8000404:	d1fb      	bne.n	80003fe <memset+0x72>
 8000406:	f00c 0403 	and.w	r4, ip, #3
 800040a:	b12c      	cbz	r4, 8000418 <memset+0x8c>
 800040c:	b2ca      	uxtb	r2, r1
 800040e:	441c      	add	r4, r3
 8000410:	f803 2b01 	strb.w	r2, [r3], #1
 8000414:	429c      	cmp	r4, r3
 8000416:	d1fb      	bne.n	8000410 <memset+0x84>
 8000418:	bd30      	pop	{r4, r5, pc}
 800041a:	4664      	mov	r4, ip
 800041c:	4613      	mov	r3, r2
 800041e:	2c00      	cmp	r4, #0
 8000420:	d1f4      	bne.n	800040c <memset+0x80>
 8000422:	e7f9      	b.n	8000418 <memset+0x8c>
 8000424:	4603      	mov	r3, r0
 8000426:	4614      	mov	r4, r2
 8000428:	e7bf      	b.n	80003aa <memset+0x1e>
 800042a:	461a      	mov	r2, r3
 800042c:	46a4      	mov	ip, r4
 800042e:	e7e0      	b.n	80003f2 <memset+0x66>

08000430 <init_CAN_settings>:
 8000430:	b500      	push	{lr}
 8000432:	4b27      	ldr	r3, [pc, #156]	; (80004d0 <init_CAN_settings+0xa0>)
 8000434:	7b5a      	ldrb	r2, [r3, #13]
 8000436:	2a01      	cmp	r2, #1
 8000438:	b083      	sub	sp, #12
 800043a:	d136      	bne.n	80004aa <init_CAN_settings+0x7a>
 800043c:	7a5a      	ldrb	r2, [r3, #9]
 800043e:	b10a      	cbz	r2, 8000444 <init_CAN_settings+0x14>
 8000440:	3a01      	subs	r2, #1
 8000442:	b2d2      	uxtb	r2, r2
 8000444:	7a99      	ldrb	r1, [r3, #10]
 8000446:	f88d 2000 	strb.w	r2, [sp]
 800044a:	b109      	cbz	r1, 8000450 <init_CAN_settings+0x20>
 800044c:	3901      	subs	r1, #1
 800044e:	b2c9      	uxtb	r1, r1
 8000450:	7ada      	ldrb	r2, [r3, #11]
 8000452:	f88d 1001 	strb.w	r1, [sp, #1]
 8000456:	b10a      	cbz	r2, 800045c <init_CAN_settings+0x2c>
 8000458:	3a01      	subs	r2, #1
 800045a:	b2d2      	uxtb	r2, r2
 800045c:	7b19      	ldrb	r1, [r3, #12]
 800045e:	f88d 2002 	strb.w	r2, [sp, #2]
 8000462:	b109      	cbz	r1, 8000468 <init_CAN_settings+0x38>
 8000464:	3901      	subs	r1, #1
 8000466:	b2c9      	uxtb	r1, r1
 8000468:	7b9a      	ldrb	r2, [r3, #14]
 800046a:	f88d 1003 	strb.w	r1, [sp, #3]
 800046e:	b10a      	cbz	r2, 8000474 <init_CAN_settings+0x44>
 8000470:	3a01      	subs	r2, #1
 8000472:	b2d2      	uxtb	r2, r2
 8000474:	7bd9      	ldrb	r1, [r3, #15]
 8000476:	f88d 2004 	strb.w	r2, [sp, #4]
 800047a:	b109      	cbz	r1, 8000480 <init_CAN_settings+0x50>
 800047c:	3901      	subs	r1, #1
 800047e:	b2c9      	uxtb	r1, r1
 8000480:	7c1a      	ldrb	r2, [r3, #16]
 8000482:	f88d 1005 	strb.w	r1, [sp, #5]
 8000486:	b10a      	cbz	r2, 800048c <init_CAN_settings+0x5c>
 8000488:	3a01      	subs	r2, #1
 800048a:	b2d2      	uxtb	r2, r2
 800048c:	7c5b      	ldrb	r3, [r3, #17]
 800048e:	f88d 2006 	strb.w	r2, [sp, #6]
 8000492:	b10b      	cbz	r3, 8000498 <init_CAN_settings+0x68>
 8000494:	3b01      	subs	r3, #1
 8000496:	b2db      	uxtb	r3, r3
 8000498:	f88d 3007 	strb.w	r3, [sp, #7]
 800049c:	e9dd 0100 	ldrd	r0, r1, [sp]
 80004a0:	b003      	add	sp, #12
 80004a2:	f85d eb04 	ldr.w	lr, [sp], #4
 80004a6:	f001 b899 	b.w	80015dc <Can_Init>
 80004aa:	f44f 70fa 	mov.w	r0, #500	; 0x1f4
 80004ae:	f001 f823 	bl	80014f8 <calculate_baudrate>
 80004b2:	4603      	mov	r3, r0
 80004b4:	f44f 70fa 	mov.w	r0, #500	; 0x1f4
 80004b8:	9300      	str	r3, [sp, #0]
 80004ba:	f001 f81d 	bl	80014f8 <calculate_baudrate>
 80004be:	9001      	str	r0, [sp, #4]
 80004c0:	e9dd 0100 	ldrd	r0, r1, [sp]
 80004c4:	b003      	add	sp, #12
 80004c6:	f85d eb04 	ldr.w	lr, [sp], #4
 80004ca:	f001 b887 	b.w	80015dc <Can_Init>
 80004ce:	bf00      	nop
 80004d0:	20000054 	.word	0x20000054

080004d4 <init_device_settings>:
 80004d4:	4b1c      	ldr	r3, [pc, #112]	; (8000548 <init_device_settings+0x74>)
 80004d6:	785a      	ldrb	r2, [r3, #1]
 80004d8:	2aff      	cmp	r2, #255	; 0xff
 80004da:	d024      	beq.n	8000526 <init_device_settings+0x52>
 80004dc:	78da      	ldrb	r2, [r3, #3]
 80004de:	2102      	movs	r1, #2
 80004e0:	f240 2002 	movw	r0, #514	; 0x202
 80004e4:	2aff      	cmp	r2, #255	; 0xff
 80004e6:	71d9      	strb	r1, [r3, #7]
 80004e8:	74d9      	strb	r1, [r3, #19]
 80004ea:	f8a3 0005 	strh.w	r0, [r3, #5]
 80004ee:	d107      	bne.n	8000500 <init_device_settings+0x2c>
 80004f0:	2201      	movs	r2, #1
 80004f2:	70da      	strb	r2, [r3, #3]
 80004f4:	2202      	movs	r2, #2
 80004f6:	2101      	movs	r1, #1
 80004f8:	7059      	strb	r1, [r3, #1]
 80004fa:	711a      	strb	r2, [r3, #4]
 80004fc:	721a      	strb	r2, [r3, #8]
 80004fe:	e001      	b.n	8000504 <init_device_settings+0x30>
 8000500:	2a01      	cmp	r2, #1
 8000502:	d0f7      	beq.n	80004f4 <init_device_settings+0x20>
 8000504:	7d5a      	ldrb	r2, [r3, #21]
 8000506:	3a0d      	subs	r2, #13
 8000508:	b2d2      	uxtb	r2, r2
 800050a:	2af1      	cmp	r2, #241	; 0xf1
 800050c:	bf84      	itt	hi
 800050e:	220d      	movhi	r2, #13
 8000510:	755a      	strbhi	r2, [r3, #21]
 8000512:	7d9a      	ldrb	r2, [r3, #22]
 8000514:	2aff      	cmp	r2, #255	; 0xff
 8000516:	f04f 0107 	mov.w	r1, #7
 800051a:	bf08      	it	eq
 800051c:	2202      	moveq	r2, #2
 800051e:	7519      	strb	r1, [r3, #20]
 8000520:	bf08      	it	eq
 8000522:	759a      	strbeq	r2, [r3, #22]
 8000524:	4770      	bx	lr
 8000526:	2102      	movs	r1, #2
 8000528:	f240 2202 	movw	r2, #514	; 0x202
 800052c:	f240 2c01 	movw	ip, #513	; 0x201
 8000530:	f240 1005 	movw	r0, #261	; 0x105
 8000534:	f8a3 c003 	strh.w	ip, [r3, #3]
 8000538:	7359      	strb	r1, [r3, #13]
 800053a:	8018      	strh	r0, [r3, #0]
 800053c:	71d9      	strb	r1, [r3, #7]
 800053e:	825a      	strh	r2, [r3, #18]
 8000540:	f8a3 2005 	strh.w	r2, [r3, #5]
 8000544:	e7d6      	b.n	80004f4 <init_device_settings+0x20>
 8000546:	bf00      	nop
 8000548:	20000054 	.word	0x20000054

0800054c <init_CAN_override_settings>:
 800054c:	b508      	push	{r3, lr}
 800054e:	f002 f877 	bl	8002640 <can_override_get_dataptr>
 8000552:	7803      	ldrb	r3, [r0, #0]
 8000554:	2bff      	cmp	r3, #255	; 0xff
 8000556:	d000      	beq.n	800055a <init_CAN_override_settings+0xe>
 8000558:	bd08      	pop	{r3, pc}
 800055a:	f002 f871 	bl	8002640 <can_override_get_dataptr>
 800055e:	e8bd 4008 	ldmia.w	sp!, {r3, lr}
 8000562:	f44f 728c 	mov.w	r2, #280	; 0x118
 8000566:	2100      	movs	r1, #0
 8000568:	f7ff bf10 	b.w	800038c <memset>

0800056c <getDeviceSoftwareVersion>:
 800056c:	4800      	ldr	r0, [pc, #0]	; (8000570 <getDeviceSoftwareVersion+0x4>)
 800056e:	4770      	bx	lr
 8000570:	20000000 	.word	0x20000000

08000574 <get_device_model_ptr>:
 8000574:	4800      	ldr	r0, [pc, #0]	; (8000578 <get_device_model_ptr+0x4>)
 8000576:	4770      	bx	lr
 8000578:	20000054 	.word	0x20000054

0800057c <get_device_modes_data>:
 800057c:	4800      	ldr	r0, [pc, #0]	; (8000580 <get_device_modes_data+0x4>)
 800057e:	4770      	bx	lr
 8000580:	20000054 	.word	0x20000054

08000584 <get_main_tim_secs>:
 8000584:	4b01      	ldr	r3, [pc, #4]	; (800058c <get_main_tim_secs+0x8>)
 8000586:	6818      	ldr	r0, [r3, #0]
 8000588:	4770      	bx	lr
 800058a:	bf00      	nop
 800058c:	20000078 	.word	0x20000078

08000590 <main>:
 8000590:	b508      	push	{r3, lr}
 8000592:	f000 fa85 	bl	8000aa0 <ClockInit>
 8000596:	2801      	cmp	r0, #1
 8000598:	d070      	beq.n	800067c <main+0xec>
 800059a:	2000      	movs	r0, #0
 800059c:	f000 fdfa 	bl	8001194 <set_bor_level>
 80005a0:	f000 fac4 	bl	8000b2c <enable_peripherals>
 80005a4:	b672      	cpsid	i
 80005a6:	f000 fd4f 	bl	8001048 <init_device_general_pinout>
 80005aa:	f003 fc23 	bl	8003df4 <SPI_start_memchip_spi>
 80005ae:	2001      	movs	r0, #1
 80005b0:	f000 fd3e 	bl	8001030 <memchip_make_app_address>
 80005b4:	493a      	ldr	r1, [pc, #232]	; (80006a0 <main+0x110>)
 80005b6:	2223      	movs	r2, #35	; 0x23
 80005b8:	f003 fb0a 	bl	8003bd0 <memchip_read>
 80005bc:	f7ff ff8a 	bl	80004d4 <init_device_settings>
 80005c0:	2002      	movs	r0, #2
 80005c2:	f000 fd35 	bl	8001030 <memchip_make_app_address>
 80005c6:	4604      	mov	r4, r0
 80005c8:	f002 f836 	bl	8002638 <can_override_get_status>
 80005cc:	f44f 728c 	mov.w	r2, #280	; 0x118
 80005d0:	4601      	mov	r1, r0
 80005d2:	4620      	mov	r0, r4
 80005d4:	f003 fafc 	bl	8003bd0 <memchip_read>
 80005d8:	f7ff ffb8 	bl	800054c <init_CAN_override_settings>
 80005dc:	2000      	movs	r0, #0
 80005de:	f000 fd27 	bl	8001030 <memchip_make_app_address>
 80005e2:	4604      	mov	r4, r0
 80005e4:	f000 fc28 	bl	8000e38 <get_vehicle_settings_data>
 80005e8:	2208      	movs	r2, #8
 80005ea:	4601      	mov	r1, r0
 80005ec:	4620      	mov	r0, r4
 80005ee:	f003 faef 	bl	8003bd0 <memchip_read>
 80005f2:	f000 fcc5 	bl	8000f80 <initVehicleSettings>
 80005f6:	2801      	cmp	r0, #1
 80005f8:	d04d      	beq.n	8000696 <main+0x106>
 80005fa:	f000 fc21 	bl	8000e40 <vehicle_model>
 80005fe:	f7ff ff17 	bl	8000430 <init_CAN_settings>
 8000602:	4b28      	ldr	r3, [pc, #160]	; (80006a4 <main+0x114>)
 8000604:	2270      	movs	r2, #112	; 0x70
 8000606:	f44f 1080 	mov.w	r0, #1048576	; 0x100000
 800060a:	2101      	movs	r1, #1
 800060c:	6018      	str	r0, [r3, #0]
 800060e:	f04f 7400 	mov.w	r4, #33554432	; 0x2000000
 8000612:	f883 2314 	strb.w	r2, [r3, #788]	; 0x314
 8000616:	20b0      	movs	r0, #176	; 0xb0
 8000618:	6099      	str	r1, [r3, #8]
 800061a:	f883 2340 	strb.w	r2, [r3, #832]	; 0x340
 800061e:	f04f 5180 	mov.w	r1, #268435456	; 0x10000000
 8000622:	2260      	movs	r2, #96	; 0x60
 8000624:	601c      	str	r4, [r3, #0]
 8000626:	f883 0319 	strb.w	r0, [r3, #793]	; 0x319
 800062a:	6019      	str	r1, [r3, #0]
 800062c:	f883 231c 	strb.w	r2, [r3, #796]	; 0x31c
 8000630:	f003 fe98 	bl	8004364 <USB_OTG_FS_init_pinout>
 8000634:	f003 fed2 	bl	80043dc <USB_OTG_FS_init_device>
 8000638:	b662      	cpsie	i
 800063a:	481b      	ldr	r0, [pc, #108]	; (80006a8 <main+0x118>)
 800063c:	4a1b      	ldr	r2, [pc, #108]	; (80006ac <main+0x11c>)
 800063e:	6983      	ldr	r3, [r0, #24]
 8000640:	4c1b      	ldr	r4, [pc, #108]	; (80006b0 <main+0x120>)
 8000642:	f043 0340 	orr.w	r3, r3, #64	; 0x40
 8000646:	6183      	str	r3, [r0, #24]
 8000648:	f644 611f 	movw	r1, #19999	; 0x4e1f
 800064c:	f242 00d0 	movw	r0, #8400	; 0x20d0
 8000650:	f003 fbe4 	bl	8003e1c <startBasicTimer>
 8000654:	25ff      	movs	r5, #255	; 0xff
 8000656:	f000 fccb 	bl	8000ff0 <reset_hw_watchdog>
 800065a:	6025      	str	r5, [r4, #0]
 800065c:	6823      	ldr	r3, [r4, #0]
 800065e:	1e5a      	subs	r2, r3, #1
 8000660:	6022      	str	r2, [r4, #0]
 8000662:	b133      	cbz	r3, 8000672 <main+0xe2>
 8000664:	f001 f9ce 	bl	8001a04 <process_buffered_can_tx>
 8000668:	6823      	ldr	r3, [r4, #0]
 800066a:	1e5a      	subs	r2, r3, #1
 800066c:	6022      	str	r2, [r4, #0]
 800066e:	2b00      	cmp	r3, #0
 8000670:	d1f8      	bne.n	8000664 <main+0xd4>
 8000672:	f000 f953 	bl	800091c <findAndProcess_cmd>
 8000676:	f000 f863 	bl	8000740 <main_led_blink>
 800067a:	e7ec      	b.n	8000656 <main+0xc6>
 800067c:	f3bf 8f4f 	dsb	sy
 8000680:	490c      	ldr	r1, [pc, #48]	; (80006b4 <main+0x124>)
 8000682:	4b0d      	ldr	r3, [pc, #52]	; (80006b8 <main+0x128>)
 8000684:	68ca      	ldr	r2, [r1, #12]
 8000686:	f402 62e0 	and.w	r2, r2, #1792	; 0x700
 800068a:	4313      	orrs	r3, r2
 800068c:	60cb      	str	r3, [r1, #12]
 800068e:	f3bf 8f4f 	dsb	sy
 8000692:	bf00      	nop
 8000694:	e7fd      	b.n	8000692 <main+0x102>
 8000696:	f641 70ff 	movw	r0, #8191	; 0x1fff
 800069a:	f000 fcab 	bl	8000ff4 <Init_IWDG>
 800069e:	e7ac      	b.n	80005fa <main+0x6a>
 80006a0:	20000054 	.word	0x20000054
 80006a4:	e000e100 	.word	0xe000e100
 80006a8:	40020000 	.word	0x40020000
 80006ac:	40010000 	.word	0x40010000
 80006b0:	20000010 	.word	0x20000010
 80006b4:	e000ed00 	.word	0xe000ed00
 80006b8:	05fa0004 	.word	0x05fa0004

080006bc <TIM1_UP_TIM10_IRQHandler>:
 80006bc:	4b0e      	ldr	r3, [pc, #56]	; (80006f8 <TIM1_UP_TIM10_IRQHandler+0x3c>)
 80006be:	691a      	ldr	r2, [r3, #16]
 80006c0:	07d2      	lsls	r2, r2, #31
 80006c2:	d516      	bpl.n	80006f2 <TIM1_UP_TIM10_IRQHandler+0x36>
 80006c4:	691a      	ldr	r2, [r3, #16]
 80006c6:	f022 0201 	bic.w	r2, r2, #1
 80006ca:	611a      	str	r2, [r3, #16]
 80006cc:	b672      	cpsid	i
 80006ce:	4a0b      	ldr	r2, [pc, #44]	; (80006fc <TIM1_UP_TIM10_IRQHandler+0x40>)
 80006d0:	2100      	movs	r1, #0
 80006d2:	6259      	str	r1, [r3, #36]	; 0x24
 80006d4:	6813      	ldr	r3, [r2, #0]
 80006d6:	3301      	adds	r3, #1
 80006d8:	6013      	str	r3, [r2, #0]
 80006da:	b662      	cpsie	i
 80006dc:	4b08      	ldr	r3, [pc, #32]	; (8000700 <TIM1_UP_TIM10_IRQHandler+0x44>)
 80006de:	7a1a      	ldrb	r2, [r3, #8]
 80006e0:	799b      	ldrb	r3, [r3, #6]
 80006e2:	2a01      	cmp	r2, #1
 80006e4:	d003      	beq.n	80006ee <TIM1_UP_TIM10_IRQHandler+0x32>
 80006e6:	2b01      	cmp	r3, #1
 80006e8:	d104      	bne.n	80006f4 <TIM1_UP_TIM10_IRQHandler+0x38>
 80006ea:	f000 bc99 	b.w	8001020 <IWDG_reset>
 80006ee:	2b01      	cmp	r3, #1
 80006f0:	d0fb      	beq.n	80006ea <TIM1_UP_TIM10_IRQHandler+0x2e>
 80006f2:	4770      	bx	lr
 80006f4:	f000 b844 	b.w	8000780 <runWatchdogProcedure>
 80006f8:	40010000 	.word	0x40010000
 80006fc:	20000078 	.word	0x20000078
 8000700:	20000054 	.word	0x20000054

08000704 <resetCanTimer>:
 8000704:	4a02      	ldr	r2, [pc, #8]	; (8000710 <resetCanTimer+0xc>)
 8000706:	2300      	movs	r3, #0
 8000708:	6243      	str	r3, [r0, #36]	; 0x24
 800070a:	6013      	str	r3, [r2, #0]
 800070c:	4770      	bx	lr
 800070e:	bf00      	nop
 8000710:	20000078 	.word	0x20000078

08000714 <ram_upd_set_size>:
 8000714:	4b01      	ldr	r3, [pc, #4]	; (800071c <ram_upd_set_size+0x8>)
 8000716:	6018      	str	r0, [r3, #0]
 8000718:	4770      	bx	lr
 800071a:	bf00      	nop
 800071c:	2000007c 	.word	0x2000007c

08000720 <ram_upd_get_pending_size>:
 8000720:	4b01      	ldr	r3, [pc, #4]	; (8000728 <ram_upd_get_pending_size+0x8>)
 8000722:	6818      	ldr	r0, [r3, #0]
 8000724:	4770      	bx	lr
 8000726:	bf00      	nop
 8000728:	2000007c 	.word	0x2000007c

0800072c <ram_upd_record_written_size>:
 800072c:	4a03      	ldr	r2, [pc, #12]	; (800073c <ram_upd_record_written_size+0x10>)
 800072e:	6813      	ldr	r3, [r2, #0]
 8000730:	4283      	cmp	r3, r0
 8000732:	bf8c      	ite	hi
 8000734:	1a1b      	subhi	r3, r3, r0
 8000736:	2300      	movls	r3, #0
 8000738:	6013      	str	r3, [r2, #0]
 800073a:	4770      	bx	lr
 800073c:	2000007c 	.word	0x2000007c

08000740 <main_led_blink>:
 8000740:	4b0c      	ldr	r3, [pc, #48]	; (8000774 <main_led_blink+0x34>)
 8000742:	781a      	ldrb	r2, [r3, #0]
 8000744:	b13a      	cbz	r2, 8000756 <main_led_blink+0x16>
 8000746:	480c      	ldr	r0, [pc, #48]	; (8000778 <main_led_blink+0x38>)
 8000748:	7801      	ldrb	r1, [r0, #0]
 800074a:	1c4a      	adds	r2, r1, #1
 800074c:	b2d2      	uxtb	r2, r2
 800074e:	7002      	strb	r2, [r0, #0]
 8000750:	781b      	ldrb	r3, [r3, #0]
 8000752:	4299      	cmp	r1, r3
 8000754:	d000      	beq.n	8000758 <main_led_blink+0x18>
 8000756:	4770      	bx	lr
 8000758:	4b08      	ldr	r3, [pc, #32]	; (800077c <main_led_blink+0x3c>)
 800075a:	695a      	ldr	r2, [r3, #20]
 800075c:	f012 0f40 	tst.w	r2, #64	; 0x40
 8000760:	699a      	ldr	r2, [r3, #24]
 8000762:	d003      	beq.n	800076c <main_led_blink+0x2c>
 8000764:	f442 0280 	orr.w	r2, r2, #4194304	; 0x400000
 8000768:	619a      	str	r2, [r3, #24]
 800076a:	4770      	bx	lr
 800076c:	f042 0240 	orr.w	r2, r2, #64	; 0x40
 8000770:	619a      	str	r2, [r3, #24]
 8000772:	e7f0      	b.n	8000756 <main_led_blink+0x16>
 8000774:	20000084 	.word	0x20000084
 8000778:	20000085 	.word	0x20000085
 800077c:	40020000 	.word	0x40020000

08000780 <runWatchdogProcedure>:
 8000780:	b508      	push	{r3, lr}
 8000782:	f004 f95b 	bl	8004a3c <USB_CDC_process_watchdog>
 8000786:	b1a0      	cbz	r0, 80007b2 <runWatchdogProcedure+0x32>
 8000788:	2801      	cmp	r0, #1
 800078a:	d010      	beq.n	80007ae <runWatchdogProcedure+0x2e>
 800078c:	f000 fc48 	bl	8001020 <IWDG_reset>
 8000790:	4b12      	ldr	r3, [pc, #72]	; (80007dc <runWatchdogProcedure+0x5c>)
 8000792:	781b      	ldrb	r3, [r3, #0]
 8000794:	b1db      	cbz	r3, 80007ce <runWatchdogProcedure+0x4e>
 8000796:	4a12      	ldr	r2, [pc, #72]	; (80007e0 <runWatchdogProcedure+0x60>)
 8000798:	4912      	ldr	r1, [pc, #72]	; (80007e4 <runWatchdogProcedure+0x64>)
 800079a:	6993      	ldr	r3, [r2, #24]
 800079c:	6989      	ldr	r1, [r1, #24]
 800079e:	430b      	orrs	r3, r1
 80007a0:	f013 0f70 	tst.w	r3, #112	; 0x70
 80007a4:	d00f      	beq.n	80007c6 <runWatchdogProcedure+0x46>
 80007a6:	6993      	ldr	r3, [r2, #24]
 80007a8:	065b      	lsls	r3, r3, #25
 80007aa:	d40c      	bmi.n	80007c6 <runWatchdogProcedure+0x46>
 80007ac:	bd08      	pop	{r3, pc}
 80007ae:	f000 fc37 	bl	8001020 <IWDG_reset>
 80007b2:	4b0a      	ldr	r3, [pc, #40]	; (80007dc <runWatchdogProcedure+0x5c>)
 80007b4:	781b      	ldrb	r3, [r3, #0]
 80007b6:	2b00      	cmp	r3, #0
 80007b8:	d1ed      	bne.n	8000796 <runWatchdogProcedure+0x16>
 80007ba:	4a0b      	ldr	r2, [pc, #44]	; (80007e8 <runWatchdogProcedure+0x68>)
 80007bc:	6993      	ldr	r3, [r2, #24]
 80007be:	f043 0340 	orr.w	r3, r3, #64	; 0x40
 80007c2:	6193      	str	r3, [r2, #24]
 80007c4:	e7e7      	b.n	8000796 <runWatchdogProcedure+0x16>
 80007c6:	e8bd 4008 	ldmia.w	sp!, {r3, lr}
 80007ca:	f000 bc29 	b.w	8001020 <IWDG_reset>
 80007ce:	4a06      	ldr	r2, [pc, #24]	; (80007e8 <runWatchdogProcedure+0x68>)
 80007d0:	6993      	ldr	r3, [r2, #24]
 80007d2:	f443 0380 	orr.w	r3, r3, #4194304	; 0x400000
 80007d6:	6193      	str	r3, [r2, #24]
 80007d8:	e7dd      	b.n	8000796 <runWatchdogProcedure+0x16>
 80007da:	bf00      	nop
 80007dc:	20000084 	.word	0x20000084
 80007e0:	40006400 	.word	0x40006400
 80007e4:	40006800 	.word	0x40006800
 80007e8:	40020000 	.word	0x40020000

080007ec <USB_CDC_receive_data>:
 80007ec:	e92d 41f0 	stmdb	sp!, {r4, r5, r6, r7, r8, lr}
 80007f0:	4e47      	ldr	r6, [pc, #284]	; (8000910 <USB_CDC_receive_data+0x124>)
 80007f2:	4b48      	ldr	r3, [pc, #288]	; (8000914 <USB_CDC_receive_data+0x128>)
 80007f4:	79f5      	ldrb	r5, [r6, #7]
 80007f6:	6a5f      	ldr	r7, [r3, #36]	; 0x24
 80007f8:	2d01      	cmp	r5, #1
 80007fa:	4604      	mov	r4, r0
 80007fc:	d01b      	beq.n	8000836 <USB_CDC_receive_data+0x4a>
 80007fe:	2d06      	cmp	r5, #6
 8000800:	d036      	beq.n	8000870 <USB_CDC_receive_data+0x84>
 8000802:	7cf3      	ldrb	r3, [r6, #19]
 8000804:	2b02      	cmp	r3, #2
 8000806:	d00a      	beq.n	800081e <USB_CDC_receive_data+0x32>
 8000808:	2bff      	cmp	r3, #255	; 0xff
 800080a:	d008      	beq.n	800081e <USB_CDC_receive_data+0x32>
 800080c:	f000 fc08 	bl	8001020 <IWDG_reset>
 8000810:	4621      	mov	r1, r4
 8000812:	4638      	mov	r0, r7
 8000814:	f001 fe7a 	bl	800250c <CDC_can_inj_receive_data>
 8000818:	4620      	mov	r0, r4
 800081a:	e8bd 81f0 	ldmia.w	sp!, {r4, r5, r6, r7, r8, pc}
 800081e:	4d3e      	ldr	r5, [pc, #248]	; (8000918 <USB_CDC_receive_data+0x12c>)
 8000820:	6828      	ldr	r0, [r5, #0]
 8000822:	2803      	cmp	r0, #3
 8000824:	d063      	beq.n	80008ee <USB_CDC_receive_data+0x102>
 8000826:	4621      	mov	r1, r4
 8000828:	4638      	mov	r0, r7
 800082a:	f002 fe43 	bl	80034b4 <fill_elp_buffer>
 800082e:	6028      	str	r0, [r5, #0]
 8000830:	4620      	mov	r0, r4
 8000832:	e8bd 81f0 	ldmia.w	sp!, {r4, r5, r6, r7, r8, pc}
 8000836:	f000 fbf3 	bl	8001020 <IWDG_reset>
 800083a:	f003 fa15 	bl	8003c68 <memchip_get_pending_length>
 800083e:	42a0      	cmp	r0, r4
 8000840:	bf28      	it	cs
 8000842:	4620      	movcs	r0, r4
 8000844:	4680      	mov	r8, r0
 8000846:	f003 fa15 	bl	8003c74 <memchip_get_address>
 800084a:	4642      	mov	r2, r8
 800084c:	4639      	mov	r1, r7
 800084e:	f003 f9f7 	bl	8003c40 <memchip_write>
 8000852:	4640      	mov	r0, r8
 8000854:	f003 fa1a 	bl	8003c8c <memchip_deduct_pending_data>
 8000858:	f003 fa06 	bl	8003c68 <memchip_get_pending_length>
 800085c:	2800      	cmp	r0, #0
 800085e:	d1db      	bne.n	8000818 <USB_CDC_receive_data+0x2c>
 8000860:	2302      	movs	r3, #2
 8000862:	2001      	movs	r0, #1
 8000864:	71f3      	strb	r3, [r6, #7]
 8000866:	f002 ff5d 	bl	8003724 <protocol_response>
 800086a:	4620      	mov	r0, r4
 800086c:	e8bd 81f0 	ldmia.w	sp!, {r4, r5, r6, r7, r8, pc}
 8000870:	f000 fbd6 	bl	8001020 <IWDG_reset>
 8000874:	f7ff ff54 	bl	8000720 <ram_upd_get_pending_size>
 8000878:	4605      	mov	r5, r0
 800087a:	f001 fee1 	bl	8002640 <can_override_get_dataptr>
 800087e:	f5c5 738c 	rsb	r3, r5, #280	; 0x118
 8000882:	42a5      	cmp	r5, r4
 8000884:	eb00 0203 	add.w	r2, r0, r3
 8000888:	4628      	mov	r0, r5
 800088a:	bf28      	it	cs
 800088c:	4620      	movcs	r0, r4
 800088e:	b328      	cbz	r0, 80008dc <USB_CDC_receive_data+0xf0>
 8000890:	1c7b      	adds	r3, r7, #1
 8000892:	1ad1      	subs	r1, r2, r3
 8000894:	2902      	cmp	r1, #2
 8000896:	d92f      	bls.n	80008f8 <USB_CDC_receive_data+0x10c>
 8000898:	1e41      	subs	r1, r0, #1
 800089a:	2907      	cmp	r1, #7
 800089c:	d92c      	bls.n	80008f8 <USB_CDC_receive_data+0x10c>
 800089e:	f020 0c03 	bic.w	ip, r0, #3
 80008a2:	44bc      	add	ip, r7
 80008a4:	463b      	mov	r3, r7
 80008a6:	4611      	mov	r1, r2
 80008a8:	f853 5b04 	ldr.w	r5, [r3], #4
 80008ac:	f841 5b04 	str.w	r5, [r1], #4
 80008b0:	4563      	cmp	r3, ip
 80008b2:	d1f9      	bne.n	80008a8 <USB_CDC_receive_data+0xbc>
 80008b4:	f020 0303 	bic.w	r3, r0, #3
 80008b8:	4298      	cmp	r0, r3
 80008ba:	eb07 0503 	add.w	r5, r7, r3
 80008be:	eb02 0103 	add.w	r1, r2, r3
 80008c2:	d00b      	beq.n	80008dc <USB_CDC_receive_data+0xf0>
 80008c4:	5cff      	ldrb	r7, [r7, r3]
 80008c6:	54d7      	strb	r7, [r2, r3]
 80008c8:	1c5a      	adds	r2, r3, #1
 80008ca:	4290      	cmp	r0, r2
 80008cc:	d906      	bls.n	80008dc <USB_CDC_receive_data+0xf0>
 80008ce:	3302      	adds	r3, #2
 80008d0:	786a      	ldrb	r2, [r5, #1]
 80008d2:	704a      	strb	r2, [r1, #1]
 80008d4:	4298      	cmp	r0, r3
 80008d6:	d901      	bls.n	80008dc <USB_CDC_receive_data+0xf0>
 80008d8:	78ab      	ldrb	r3, [r5, #2]
 80008da:	708b      	strb	r3, [r1, #2]
 80008dc:	f7ff ff26 	bl	800072c <ram_upd_record_written_size>
 80008e0:	f7ff ff1e 	bl	8000720 <ram_upd_get_pending_size>
 80008e4:	2800      	cmp	r0, #0
 80008e6:	d0bb      	beq.n	8000860 <USB_CDC_receive_data+0x74>
 80008e8:	4620      	mov	r0, r4
 80008ea:	e8bd 81f0 	ldmia.w	sp!, {r4, r5, r6, r7, r8, pc}
 80008ee:	f002 ff19 	bl	8003724 <protocol_response>
 80008f2:	4620      	mov	r0, r4
 80008f4:	e8bd 81f0 	ldmia.w	sp!, {r4, r5, r6, r7, r8, pc}
 80008f8:	3a01      	subs	r2, #1
 80008fa:	4407      	add	r7, r0
 80008fc:	e000      	b.n	8000900 <USB_CDC_receive_data+0x114>
 80008fe:	3301      	adds	r3, #1
 8000900:	f813 1c01 	ldrb.w	r1, [r3, #-1]
 8000904:	f802 1f01 	strb.w	r1, [r2, #1]!
 8000908:	42bb      	cmp	r3, r7
 800090a:	d1f8      	bne.n	80008fe <USB_CDC_receive_data+0x112>
 800090c:	e7e6      	b.n	80008dc <USB_CDC_receive_data+0xf0>
 800090e:	bf00      	nop
 8000910:	20000054 	.word	0x20000054
 8000914:	20008940 	.word	0x20008940
 8000918:	20000014 	.word	0x20000014

0800091c <findAndProcess_cmd>:
 800091c:	b570      	push	{r4, r5, r6, lr}
 800091e:	4c16      	ldr	r4, [pc, #88]	; (8000978 <findAndProcess_cmd+0x5c>)
 8000920:	6823      	ldr	r3, [r4, #0]
 8000922:	2b01      	cmp	r3, #1
 8000924:	d002      	beq.n	800092c <findAndProcess_cmd+0x10>
 8000926:	2302      	movs	r3, #2
 8000928:	6023      	str	r3, [r4, #0]
 800092a:	bd70      	pop	{r4, r5, r6, pc}
 800092c:	2303      	movs	r3, #3
 800092e:	6023      	str	r3, [r4, #0]
 8000930:	f002 fe2c 	bl	800358c <find_and_parse_elp_cmd>
 8000934:	2802      	cmp	r0, #2
 8000936:	4605      	mov	r5, r0
 8000938:	d0f5      	beq.n	8000926 <findAndProcess_cmd+0xa>
 800093a:	f002 fda9 	bl	8003490 <el_get_current_cmd>
 800093e:	b1ad      	cbz	r5, 800096c <findAndProcess_cmd+0x50>
 8000940:	6803      	ldr	r3, [r0, #0]
 8000942:	f5b3 6f2a 	cmp.w	r3, #2720	; 0xaa0
 8000946:	d10e      	bne.n	8000966 <findAndProcess_cmd+0x4a>
 8000948:	4d0c      	ldr	r5, [pc, #48]	; (800097c <findAndProcess_cmd+0x60>)
 800094a:	4b0d      	ldr	r3, [pc, #52]	; (8000980 <findAndProcess_cmd+0x64>)
 800094c:	786e      	ldrb	r6, [r5, #1]
 800094e:	2280      	movs	r2, #128	; 0x80
 8000950:	2e01      	cmp	r6, #1
 8000952:	701a      	strb	r2, [r3, #0]
 8000954:	d107      	bne.n	8000966 <findAndProcess_cmd+0x4a>
 8000956:	2302      	movs	r3, #2
 8000958:	706b      	strb	r3, [r5, #1]
 800095a:	70eb      	strb	r3, [r5, #3]
 800095c:	f002 ff00 	bl	8003760 <process_protocol_cmd>
 8000960:	706e      	strb	r6, [r5, #1]
 8000962:	70ee      	strb	r6, [r5, #3]
 8000964:	e7df      	b.n	8000926 <findAndProcess_cmd+0xa>
 8000966:	f002 fefb 	bl	8003760 <process_protocol_cmd>
 800096a:	e7dc      	b.n	8000926 <findAndProcess_cmd+0xa>
 800096c:	4b04      	ldr	r3, [pc, #16]	; (8000980 <findAndProcess_cmd+0x64>)
 800096e:	2210      	movs	r2, #16
 8000970:	701a      	strb	r2, [r3, #0]
 8000972:	f002 fd91 	bl	8003498 <el_reset_state>
 8000976:	e7d6      	b.n	8000926 <findAndProcess_cmd+0xa>
 8000978:	20000014 	.word	0x20000014
 800097c:	20000054 	.word	0x20000054
 8000980:	20000084 	.word	0x20000084

08000984 <CAN1_RX0_IRQHandler>:
 8000984:	b530      	push	{r4, r5, lr}
 8000986:	4c1d      	ldr	r4, [pc, #116]	; (80009fc <CAN1_RX0_IRQHandler+0x78>)
 8000988:	68e3      	ldr	r3, [r4, #12]
 800098a:	079b      	lsls	r3, r3, #30
 800098c:	b083      	sub	sp, #12
 800098e:	d01a      	beq.n	80009c6 <CAN1_RX0_IRQHandler+0x42>
 8000990:	4d1b      	ldr	r5, [pc, #108]	; (8000a00 <CAN1_RX0_IRQHandler+0x7c>)
 8000992:	796b      	ldrb	r3, [r5, #5]
 8000994:	2b01      	cmp	r3, #1
 8000996:	d01d      	beq.n	80009d4 <CAN1_RX0_IRQHandler+0x50>
 8000998:	4a1a      	ldr	r2, [pc, #104]	; (8000a04 <CAN1_RX0_IRQHandler+0x80>)
 800099a:	2100      	movs	r1, #0
 800099c:	4620      	mov	r0, r4
 800099e:	f000 fddf 	bl	8001560 <Can_Recieve_StdMessage>
 80009a2:	786b      	ldrb	r3, [r5, #1]
 80009a4:	2b01      	cmp	r3, #1
 80009a6:	d10e      	bne.n	80009c6 <CAN1_RX0_IRQHandler+0x42>
 80009a8:	78eb      	ldrb	r3, [r5, #3]
 80009aa:	2b01      	cmp	r3, #1
 80009ac:	d105      	bne.n	80009ba <CAN1_RX0_IRQHandler+0x36>
 80009ae:	7929      	ldrb	r1, [r5, #4]
 80009b0:	2901      	cmp	r1, #1
 80009b2:	d01c      	beq.n	80009ee <CAN1_RX0_IRQHandler+0x6a>
 80009b4:	4813      	ldr	r0, [pc, #76]	; (8000a04 <CAN1_RX0_IRQHandler+0x80>)
 80009b6:	f001 fe47 	bl	8002648 <can_override_calibrate>
 80009ba:	4912      	ldr	r1, [pc, #72]	; (8000a04 <CAN1_RX0_IRQHandler+0x80>)
 80009bc:	4812      	ldr	r0, [pc, #72]	; (8000a08 <CAN1_RX0_IRQHandler+0x84>)
 80009be:	f000 fdb1 	bl	8001524 <Can_Transmit_Message>
 80009c2:	2804      	cmp	r0, #4
 80009c4:	d110      	bne.n	80009e8 <CAN1_RX0_IRQHandler+0x64>
 80009c6:	4a0d      	ldr	r2, [pc, #52]	; (80009fc <CAN1_RX0_IRQHandler+0x78>)
 80009c8:	68d3      	ldr	r3, [r2, #12]
 80009ca:	f043 0320 	orr.w	r3, r3, #32
 80009ce:	60d3      	str	r3, [r2, #12]
 80009d0:	b003      	add	sp, #12
 80009d2:	bd30      	pop	{r4, r5, pc}
 80009d4:	f7ff fdd6 	bl	8000584 <get_main_tim_secs>
 80009d8:	4b0c      	ldr	r3, [pc, #48]	; (8000a0c <CAN1_RX0_IRQHandler+0x88>)
 80009da:	9000      	str	r0, [sp, #0]
 80009dc:	490c      	ldr	r1, [pc, #48]	; (8000a10 <CAN1_RX0_IRQHandler+0x8c>)
 80009de:	2200      	movs	r2, #0
 80009e0:	4620      	mov	r0, r4
 80009e2:	f002 fa0f 	bl	8002e04 <can_receive_and_usb_transmit_msg>
 80009e6:	e7dc      	b.n	80009a2 <CAN1_RX0_IRQHandler+0x1e>
 80009e8:	f000 fb1a 	bl	8001020 <IWDG_reset>
 80009ec:	e7eb      	b.n	80009c6 <CAN1_RX0_IRQHandler+0x42>
 80009ee:	4805      	ldr	r0, [pc, #20]	; (8000a04 <CAN1_RX0_IRQHandler+0x80>)
 80009f0:	f001 fed8 	bl	80027a4 <can_override_process_filters>
 80009f4:	2800      	cmp	r0, #0
 80009f6:	d1dd      	bne.n	80009b4 <CAN1_RX0_IRQHandler+0x30>
 80009f8:	e7e5      	b.n	80009c6 <CAN1_RX0_IRQHandler+0x42>
 80009fa:	bf00      	nop
 80009fc:	40006400 	.word	0x40006400
 8000a00:	20000054 	.word	0x20000054
 8000a04:	200000a8 	.word	0x200000a8
 8000a08:	40006800 	.word	0x40006800
 8000a0c:	200000a0 	.word	0x200000a0
 8000a10:	40010000 	.word	0x40010000

08000a14 <CAN2_RX0_IRQHandler>:
 8000a14:	b530      	push	{r4, r5, lr}
 8000a16:	4c1c      	ldr	r4, [pc, #112]	; (8000a88 <CAN2_RX0_IRQHandler+0x74>)
 8000a18:	68e3      	ldr	r3, [r4, #12]
 8000a1a:	079b      	lsls	r3, r3, #30
 8000a1c:	b083      	sub	sp, #12
 8000a1e:	d013      	beq.n	8000a48 <CAN2_RX0_IRQHandler+0x34>
 8000a20:	4d1a      	ldr	r5, [pc, #104]	; (8000a8c <CAN2_RX0_IRQHandler+0x78>)
 8000a22:	79ab      	ldrb	r3, [r5, #6]
 8000a24:	2b01      	cmp	r3, #1
 8000a26:	d016      	beq.n	8000a56 <CAN2_RX0_IRQHandler+0x42>
 8000a28:	4a19      	ldr	r2, [pc, #100]	; (8000a90 <CAN2_RX0_IRQHandler+0x7c>)
 8000a2a:	2100      	movs	r1, #0
 8000a2c:	4620      	mov	r0, r4
 8000a2e:	f000 fd97 	bl	8001560 <Can_Recieve_StdMessage>
 8000a32:	78eb      	ldrb	r3, [r5, #3]
 8000a34:	2b01      	cmp	r3, #1
 8000a36:	d01a      	beq.n	8000a6e <CAN2_RX0_IRQHandler+0x5a>
 8000a38:	4915      	ldr	r1, [pc, #84]	; (8000a90 <CAN2_RX0_IRQHandler+0x7c>)
 8000a3a:	4816      	ldr	r0, [pc, #88]	; (8000a94 <CAN2_RX0_IRQHandler+0x80>)
 8000a3c:	f000 fd72 	bl	8001524 <Can_Transmit_Message>
 8000a40:	2804      	cmp	r0, #4
 8000a42:	d001      	beq.n	8000a48 <CAN2_RX0_IRQHandler+0x34>
 8000a44:	f000 faec 	bl	8001020 <IWDG_reset>
 8000a48:	4a0f      	ldr	r2, [pc, #60]	; (8000a88 <CAN2_RX0_IRQHandler+0x74>)
 8000a4a:	68d3      	ldr	r3, [r2, #12]
 8000a4c:	f043 0320 	orr.w	r3, r3, #32
 8000a50:	60d3      	str	r3, [r2, #12]
 8000a52:	b003      	add	sp, #12
 8000a54:	bd30      	pop	{r4, r5, pc}
 8000a56:	f7ff fd95 	bl	8000584 <get_main_tim_secs>
 8000a5a:	4b0f      	ldr	r3, [pc, #60]	; (8000a98 <CAN2_RX0_IRQHandler+0x84>)
 8000a5c:	9000      	str	r0, [sp, #0]
 8000a5e:	490f      	ldr	r1, [pc, #60]	; (8000a9c <CAN2_RX0_IRQHandler+0x88>)
 8000a60:	2200      	movs	r2, #0
 8000a62:	4620      	mov	r0, r4
 8000a64:	f002 f9ce 	bl	8002e04 <can_receive_and_usb_transmit_msg>
 8000a68:	78eb      	ldrb	r3, [r5, #3]
 8000a6a:	2b01      	cmp	r3, #1
 8000a6c:	d1e4      	bne.n	8000a38 <CAN2_RX0_IRQHandler+0x24>
 8000a6e:	4808      	ldr	r0, [pc, #32]	; (8000a90 <CAN2_RX0_IRQHandler+0x7c>)
 8000a70:	f001 fe96 	bl	80027a0 <can_override_proc_reverse_calibrate>
 8000a74:	792b      	ldrb	r3, [r5, #4]
 8000a76:	2b01      	cmp	r3, #1
 8000a78:	d1de      	bne.n	8000a38 <CAN2_RX0_IRQHandler+0x24>
 8000a7a:	4805      	ldr	r0, [pc, #20]	; (8000a90 <CAN2_RX0_IRQHandler+0x7c>)
 8000a7c:	2102      	movs	r1, #2
 8000a7e:	f001 fe91 	bl	80027a4 <can_override_process_filters>
 8000a82:	2800      	cmp	r0, #0
 8000a84:	d1d8      	bne.n	8000a38 <CAN2_RX0_IRQHandler+0x24>
 8000a86:	e7df      	b.n	8000a48 <CAN2_RX0_IRQHandler+0x34>
 8000a88:	40006800 	.word	0x40006800
 8000a8c:	20000054 	.word	0x20000054
 8000a90:	20000090 	.word	0x20000090
 8000a94:	40006400 	.word	0x40006400
 8000a98:	20000088 	.word	0x20000088
 8000a9c:	40010000 	.word	0x40010000

08000aa0 <ClockInit>:
 8000aa0:	b410      	push	{r4}
 8000aa2:	b083      	sub	sp, #12
 8000aa4:	2300      	movs	r3, #0
 8000aa6:	4a1e      	ldr	r2, [pc, #120]	; (8000b20 <ClockInit+0x80>)
 8000aa8:	9300      	str	r3, [sp, #0]
 8000aaa:	9301      	str	r3, [sp, #4]
 8000aac:	6813      	ldr	r3, [r2, #0]
 8000aae:	f443 3380 	orr.w	r3, r3, #65536	; 0x10000
 8000ab2:	2101      	movs	r1, #1
 8000ab4:	6013      	str	r3, [r2, #0]
 8000ab6:	e008      	b.n	8000aca <ClockInit+0x2a>
 8000ab8:	9b00      	ldr	r3, [sp, #0]
 8000aba:	b953      	cbnz	r3, 8000ad2 <ClockInit+0x32>
 8000abc:	9b01      	ldr	r3, [sp, #4]
 8000abe:	3301      	adds	r3, #1
 8000ac0:	9301      	str	r3, [sp, #4]
 8000ac2:	6813      	ldr	r3, [r2, #0]
 8000ac4:	0398      	lsls	r0, r3, #14
 8000ac6:	bf48      	it	mi
 8000ac8:	9100      	strmi	r1, [sp, #0]
 8000aca:	9b01      	ldr	r3, [sp, #4]
 8000acc:	f5b3 6fa0 	cmp.w	r3, #1280	; 0x500
 8000ad0:	d3f2      	bcc.n	8000ab8 <ClockInit+0x18>
 8000ad2:	9b00      	ldr	r3, [sp, #0]
 8000ad4:	b1fb      	cbz	r3, 8000b16 <ClockInit+0x76>
 8000ad6:	4a12      	ldr	r2, [pc, #72]	; (8000b20 <ClockInit+0x80>)
 8000ad8:	4b12      	ldr	r3, [pc, #72]	; (8000b24 <ClockInit+0x84>)
 8000ada:	6053      	str	r3, [r2, #4]
 8000adc:	6813      	ldr	r3, [r2, #0]
 8000ade:	f043 7380 	orr.w	r3, r3, #16777216	; 0x1000000
 8000ae2:	6013      	str	r3, [r2, #0]
 8000ae4:	6813      	ldr	r3, [r2, #0]
 8000ae6:	019b      	lsls	r3, r3, #6
 8000ae8:	d5fc      	bpl.n	8000ae4 <ClockInit+0x44>
 8000aea:	480f      	ldr	r0, [pc, #60]	; (8000b28 <ClockInit+0x88>)
 8000aec:	490c      	ldr	r1, [pc, #48]	; (8000b20 <ClockInit+0x80>)
 8000aee:	6803      	ldr	r3, [r0, #0]
 8000af0:	f249 440a 	movw	r4, #37898	; 0x940a
 8000af4:	f043 0305 	orr.w	r3, r3, #5
 8000af8:	6003      	str	r3, [r0, #0]
 8000afa:	6094      	str	r4, [r2, #8]
 8000afc:	6893      	ldr	r3, [r2, #8]
 8000afe:	f043 0302 	orr.w	r3, r3, #2
 8000b02:	6093      	str	r3, [r2, #8]
 8000b04:	688b      	ldr	r3, [r1, #8]
 8000b06:	f003 030c 	and.w	r3, r3, #12
 8000b0a:	2b08      	cmp	r3, #8
 8000b0c:	d1fa      	bne.n	8000b04 <ClockInit+0x64>
 8000b0e:	2000      	movs	r0, #0
 8000b10:	b003      	add	sp, #12
 8000b12:	bc10      	pop	{r4}
 8000b14:	4770      	bx	lr
 8000b16:	2001      	movs	r0, #1
 8000b18:	b003      	add	sp, #12
 8000b1a:	bc10      	pop	{r4}
 8000b1c:	4770      	bx	lr
 8000b1e:	bf00      	nop
 8000b20:	40023800 	.word	0x40023800
 8000b24:	07402a04 	.word	0x07402a04
 8000b28:	40023c00 	.word	0x40023c00

08000b2c <enable_peripherals>:
 8000b2c:	4b25      	ldr	r3, [pc, #148]	; (8000bc4 <enable_peripherals+0x98>)
 8000b2e:	4826      	ldr	r0, [pc, #152]	; (8000bc8 <enable_peripherals+0x9c>)
 8000b30:	6b1a      	ldr	r2, [r3, #48]	; 0x30
 8000b32:	f042 0201 	orr.w	r2, r2, #1
 8000b36:	b410      	push	{r4}
 8000b38:	631a      	str	r2, [r3, #48]	; 0x30
 8000b3a:	6b1c      	ldr	r4, [r3, #48]	; 0x30
 8000b3c:	4a23      	ldr	r2, [pc, #140]	; (8000bcc <enable_peripherals+0xa0>)
 8000b3e:	f044 0402 	orr.w	r4, r4, #2
 8000b42:	631c      	str	r4, [r3, #48]	; 0x30
 8000b44:	6b1c      	ldr	r4, [r3, #48]	; 0x30
 8000b46:	f044 0404 	orr.w	r4, r4, #4
 8000b4a:	631c      	str	r4, [r3, #48]	; 0x30
 8000b4c:	6b1c      	ldr	r4, [r3, #48]	; 0x30
 8000b4e:	f044 0408 	orr.w	r4, r4, #8
 8000b52:	631c      	str	r4, [r3, #48]	; 0x30
 8000b54:	6b1c      	ldr	r4, [r3, #48]	; 0x30
 8000b56:	f044 0410 	orr.w	r4, r4, #16
 8000b5a:	631c      	str	r4, [r3, #48]	; 0x30
 8000b5c:	6b1c      	ldr	r4, [r3, #48]	; 0x30
 8000b5e:	f044 0480 	orr.w	r4, r4, #128	; 0x80
 8000b62:	631c      	str	r4, [r3, #48]	; 0x30
 8000b64:	6c1c      	ldr	r4, [r3, #64]	; 0x40
 8000b66:	f044 7400 	orr.w	r4, r4, #33554432	; 0x2000000
 8000b6a:	641c      	str	r4, [r3, #64]	; 0x40
 8000b6c:	6c1c      	ldr	r4, [r3, #64]	; 0x40
 8000b6e:	f044 6480 	orr.w	r4, r4, #67108864	; 0x4000000
 8000b72:	641c      	str	r4, [r3, #64]	; 0x40
 8000b74:	6c5c      	ldr	r4, [r3, #68]	; 0x44
 8000b76:	f444 5480 	orr.w	r4, r4, #4096	; 0x1000
 8000b7a:	645c      	str	r4, [r3, #68]	; 0x44
 8000b7c:	6c5c      	ldr	r4, [r3, #68]	; 0x44
 8000b7e:	f044 0401 	orr.w	r4, r4, #1
 8000b82:	645c      	str	r4, [r3, #68]	; 0x44
 8000b84:	6c1c      	ldr	r4, [r3, #64]	; 0x40
 8000b86:	f044 0401 	orr.w	r4, r4, #1
 8000b8a:	641c      	str	r4, [r3, #64]	; 0x40
 8000b8c:	6c1c      	ldr	r4, [r3, #64]	; 0x40
 8000b8e:	f044 0402 	orr.w	r4, r4, #2
 8000b92:	641c      	str	r4, [r3, #64]	; 0x40
 8000b94:	6b5c      	ldr	r4, [r3, #52]	; 0x34
 8000b96:	f044 0480 	orr.w	r4, r4, #128	; 0x80
 8000b9a:	635c      	str	r4, [r3, #52]	; 0x34
 8000b9c:	6c1c      	ldr	r4, [r3, #64]	; 0x40
 8000b9e:	f044 5480 	orr.w	r4, r4, #268435456	; 0x10000000
 8000ba2:	641c      	str	r4, [r3, #64]	; 0x40
 8000ba4:	6c5c      	ldr	r4, [r3, #68]	; 0x44
 8000ba6:	f444 4480 	orr.w	r4, r4, #16384	; 0x4000
 8000baa:	2100      	movs	r1, #0
 8000bac:	645c      	str	r4, [r3, #68]	; 0x44
 8000bae:	6a03      	ldr	r3, [r0, #32]
 8000bb0:	6201      	str	r1, [r0, #32]
 8000bb2:	6a43      	ldr	r3, [r0, #36]	; 0x24
 8000bb4:	6241      	str	r1, [r0, #36]	; 0x24
 8000bb6:	6a13      	ldr	r3, [r2, #32]
 8000bb8:	6211      	str	r1, [r2, #32]
 8000bba:	6a53      	ldr	r3, [r2, #36]	; 0x24
 8000bbc:	bc10      	pop	{r4}
 8000bbe:	6251      	str	r1, [r2, #36]	; 0x24
 8000bc0:	4770      	bx	lr
 8000bc2:	bf00      	nop
 8000bc4:	40023800 	.word	0x40023800
 8000bc8:	40020000 	.word	0x40020000
 8000bcc:	40020400 	.word	0x40020400

08000bd0 <str_to_uint32>:
 8000bd0:	79c1      	ldrb	r1, [r0, #7]
 8000bd2:	f1a1 0330 	sub.w	r3, r1, #48	; 0x30
 8000bd6:	b2db      	uxtb	r3, r3
 8000bd8:	2b09      	cmp	r3, #9
 8000bda:	d907      	bls.n	8000bec <str_to_uint32+0x1c>
 8000bdc:	f1a1 0361 	sub.w	r3, r1, #97	; 0x61
 8000be0:	2b05      	cmp	r3, #5
 8000be2:	f200 80ae 	bhi.w	8000d42 <str_to_uint32+0x172>
 8000be6:	f1a1 0357 	sub.w	r3, r1, #87	; 0x57
 8000bea:	b2db      	uxtb	r3, r3
 8000bec:	7981      	ldrb	r1, [r0, #6]
 8000bee:	f1a1 0230 	sub.w	r2, r1, #48	; 0x30
 8000bf2:	b2d2      	uxtb	r2, r2
 8000bf4:	2a09      	cmp	r2, #9
 8000bf6:	d907      	bls.n	8000c08 <str_to_uint32+0x38>
 8000bf8:	f1a1 0261 	sub.w	r2, r1, #97	; 0x61
 8000bfc:	2a05      	cmp	r2, #5
 8000bfe:	f200 8098 	bhi.w	8000d32 <str_to_uint32+0x162>
 8000c02:	f1a1 0257 	sub.w	r2, r1, #87	; 0x57
 8000c06:	b2d2      	uxtb	r2, r2
 8000c08:	f890 c005 	ldrb.w	ip, [r0, #5]
 8000c0c:	ea43 1102 	orr.w	r1, r3, r2, lsl #4
 8000c10:	f1ac 0330 	sub.w	r3, ip, #48	; 0x30
 8000c14:	b2db      	uxtb	r3, r3
 8000c16:	2b09      	cmp	r3, #9
 8000c18:	d906      	bls.n	8000c28 <str_to_uint32+0x58>
 8000c1a:	f1ac 0361 	sub.w	r3, ip, #97	; 0x61
 8000c1e:	2b05      	cmp	r3, #5
 8000c20:	d87f      	bhi.n	8000d22 <str_to_uint32+0x152>
 8000c22:	f1ac 0357 	sub.w	r3, ip, #87	; 0x57
 8000c26:	b2db      	uxtb	r3, r3
 8000c28:	f890 c004 	ldrb.w	ip, [r0, #4]
 8000c2c:	ea41 2203 	orr.w	r2, r1, r3, lsl #8
 8000c30:	f1ac 0130 	sub.w	r1, ip, #48	; 0x30
 8000c34:	b2c9      	uxtb	r1, r1
 8000c36:	2909      	cmp	r1, #9
 8000c38:	d906      	bls.n	8000c48 <str_to_uint32+0x78>
 8000c3a:	f1ac 0361 	sub.w	r3, ip, #97	; 0x61
 8000c3e:	2b05      	cmp	r3, #5
 8000c40:	d867      	bhi.n	8000d12 <str_to_uint32+0x142>
 8000c42:	f1ac 0157 	sub.w	r1, ip, #87	; 0x57
 8000c46:	b2c9      	uxtb	r1, r1
 8000c48:	f890 c003 	ldrb.w	ip, [r0, #3]
 8000c4c:	ea42 3301 	orr.w	r3, r2, r1, lsl #12
 8000c50:	f1ac 0230 	sub.w	r2, ip, #48	; 0x30
 8000c54:	b2d2      	uxtb	r2, r2
 8000c56:	2a09      	cmp	r2, #9
 8000c58:	d906      	bls.n	8000c68 <str_to_uint32+0x98>
 8000c5a:	f1ac 0261 	sub.w	r2, ip, #97	; 0x61
 8000c5e:	2a05      	cmp	r2, #5
 8000c60:	d84f      	bhi.n	8000d02 <str_to_uint32+0x132>
 8000c62:	f1ac 0257 	sub.w	r2, ip, #87	; 0x57
 8000c66:	b2d2      	uxtb	r2, r2
 8000c68:	f890 c002 	ldrb.w	ip, [r0, #2]
 8000c6c:	ea43 4102 	orr.w	r1, r3, r2, lsl #16
 8000c70:	f1ac 0330 	sub.w	r3, ip, #48	; 0x30
 8000c74:	b2db      	uxtb	r3, r3
 8000c76:	2b09      	cmp	r3, #9
 8000c78:	d906      	bls.n	8000c88 <str_to_uint32+0xb8>
 8000c7a:	f1ac 0361 	sub.w	r3, ip, #97	; 0x61
 8000c7e:	2b05      	cmp	r3, #5
 8000c80:	d837      	bhi.n	8000cf2 <str_to_uint32+0x122>
 8000c82:	f1ac 0357 	sub.w	r3, ip, #87	; 0x57
 8000c86:	b2db      	uxtb	r3, r3
 8000c88:	f890 c001 	ldrb.w	ip, [r0, #1]
 8000c8c:	ea41 5203 	orr.w	r2, r1, r3, lsl #20
 8000c90:	f1ac 0330 	sub.w	r3, ip, #48	; 0x30
 8000c94:	b2db      	uxtb	r3, r3
 8000c96:	2b09      	cmp	r3, #9
 8000c98:	d906      	bls.n	8000ca8 <str_to_uint32+0xd8>
 8000c9a:	f1ac 0361 	sub.w	r3, ip, #97	; 0x61
 8000c9e:	2b05      	cmp	r3, #5
 8000ca0:	d81f      	bhi.n	8000ce2 <str_to_uint32+0x112>
 8000ca2:	f1ac 0357 	sub.w	r3, ip, #87	; 0x57
 8000ca6:	b2db      	uxtb	r3, r3
 8000ca8:	7801      	ldrb	r1, [r0, #0]
 8000caa:	f1a1 0030 	sub.w	r0, r1, #48	; 0x30
 8000cae:	b2c0      	uxtb	r0, r0
 8000cb0:	2809      	cmp	r0, #9
 8000cb2:	ea42 6303 	orr.w	r3, r2, r3, lsl #24
 8000cb6:	d906      	bls.n	8000cc6 <str_to_uint32+0xf6>
 8000cb8:	f1a1 0261 	sub.w	r2, r1, #97	; 0x61
 8000cbc:	2a05      	cmp	r2, #5
 8000cbe:	d805      	bhi.n	8000ccc <str_to_uint32+0xfc>
 8000cc0:	f1a1 0057 	sub.w	r0, r1, #87	; 0x57
 8000cc4:	b2c0      	uxtb	r0, r0
 8000cc6:	ea43 7000 	orr.w	r0, r3, r0, lsl #28
 8000cca:	4770      	bx	lr
 8000ccc:	f1a1 0241 	sub.w	r2, r1, #65	; 0x41
 8000cd0:	2a05      	cmp	r2, #5
 8000cd2:	bf9a      	itte	ls
 8000cd4:	f1a1 0037 	subls.w	r0, r1, #55	; 0x37
 8000cd8:	b2c0      	uxtbls	r0, r0
 8000cda:	20ff      	movhi	r0, #255	; 0xff
 8000cdc:	ea43 7000 	orr.w	r0, r3, r0, lsl #28
 8000ce0:	4770      	bx	lr
 8000ce2:	f1ac 0341 	sub.w	r3, ip, #65	; 0x41
 8000ce6:	2b05      	cmp	r3, #5
 8000ce8:	d837      	bhi.n	8000d5a <str_to_uint32+0x18a>
 8000cea:	f1ac 0337 	sub.w	r3, ip, #55	; 0x37
 8000cee:	b2db      	uxtb	r3, r3
 8000cf0:	e7da      	b.n	8000ca8 <str_to_uint32+0xd8>
 8000cf2:	f1ac 0341 	sub.w	r3, ip, #65	; 0x41
 8000cf6:	2b05      	cmp	r3, #5
 8000cf8:	d82d      	bhi.n	8000d56 <str_to_uint32+0x186>
 8000cfa:	f1ac 0337 	sub.w	r3, ip, #55	; 0x37
 8000cfe:	b2db      	uxtb	r3, r3
 8000d00:	e7c2      	b.n	8000c88 <str_to_uint32+0xb8>
 8000d02:	f1ac 0241 	sub.w	r2, ip, #65	; 0x41
 8000d06:	2a05      	cmp	r2, #5
 8000d08:	d82f      	bhi.n	8000d6a <str_to_uint32+0x19a>
 8000d0a:	f1ac 0237 	sub.w	r2, ip, #55	; 0x37
 8000d0e:	b2d2      	uxtb	r2, r2
 8000d10:	e7aa      	b.n	8000c68 <str_to_uint32+0x98>
 8000d12:	f1ac 0341 	sub.w	r3, ip, #65	; 0x41
 8000d16:	2b05      	cmp	r3, #5
 8000d18:	d825      	bhi.n	8000d66 <str_to_uint32+0x196>
 8000d1a:	f1ac 0137 	sub.w	r1, ip, #55	; 0x37
 8000d1e:	b2c9      	uxtb	r1, r1
 8000d20:	e792      	b.n	8000c48 <str_to_uint32+0x78>
 8000d22:	f1ac 0341 	sub.w	r3, ip, #65	; 0x41
 8000d26:	2b05      	cmp	r3, #5
 8000d28:	d81b      	bhi.n	8000d62 <str_to_uint32+0x192>
 8000d2a:	f1ac 0337 	sub.w	r3, ip, #55	; 0x37
 8000d2e:	b2db      	uxtb	r3, r3
 8000d30:	e77a      	b.n	8000c28 <str_to_uint32+0x58>
 8000d32:	f1a1 0241 	sub.w	r2, r1, #65	; 0x41
 8000d36:	2a05      	cmp	r2, #5
 8000d38:	d811      	bhi.n	8000d5e <str_to_uint32+0x18e>
 8000d3a:	f1a1 0237 	sub.w	r2, r1, #55	; 0x37
 8000d3e:	b2d2      	uxtb	r2, r2
 8000d40:	e762      	b.n	8000c08 <str_to_uint32+0x38>
 8000d42:	f1a1 0341 	sub.w	r3, r1, #65	; 0x41
 8000d46:	2b05      	cmp	r3, #5
 8000d48:	d803      	bhi.n	8000d52 <str_to_uint32+0x182>
 8000d4a:	f1a1 0337 	sub.w	r3, r1, #55	; 0x37
 8000d4e:	b2db      	uxtb	r3, r3
 8000d50:	e74c      	b.n	8000bec <str_to_uint32+0x1c>
 8000d52:	23ff      	movs	r3, #255	; 0xff
 8000d54:	e74a      	b.n	8000bec <str_to_uint32+0x1c>
 8000d56:	23ff      	movs	r3, #255	; 0xff
 8000d58:	e796      	b.n	8000c88 <str_to_uint32+0xb8>
 8000d5a:	23ff      	movs	r3, #255	; 0xff
 8000d5c:	e7a4      	b.n	8000ca8 <str_to_uint32+0xd8>
 8000d5e:	22ff      	movs	r2, #255	; 0xff
 8000d60:	e752      	b.n	8000c08 <str_to_uint32+0x38>
 8000d62:	23ff      	movs	r3, #255	; 0xff
 8000d64:	e760      	b.n	8000c28 <str_to_uint32+0x58>
 8000d66:	21ff      	movs	r1, #255	; 0xff
 8000d68:	e76e      	b.n	8000c48 <str_to_uint32+0x78>
 8000d6a:	22ff      	movs	r2, #255	; 0xff
 8000d6c:	e77c      	b.n	8000c68 <str_to_uint32+0x98>
 8000d6e:	bf00      	nop

08000d70 <str_to_uint8>:
 8000d70:	f1a0 0230 	sub.w	r2, r0, #48	; 0x30
 8000d74:	b2d2      	uxtb	r2, r2
 8000d76:	2a09      	cmp	r2, #9
 8000d78:	d905      	bls.n	8000d86 <str_to_uint8+0x16>
 8000d7a:	f1a0 0361 	sub.w	r3, r0, #97	; 0x61
 8000d7e:	2b05      	cmp	r3, #5
 8000d80:	d81b      	bhi.n	8000dba <str_to_uint8+0x4a>
 8000d82:	3857      	subs	r0, #87	; 0x57
 8000d84:	b2c2      	uxtb	r2, r0
 8000d86:	f1a1 0330 	sub.w	r3, r1, #48	; 0x30
 8000d8a:	b2db      	uxtb	r3, r3
 8000d8c:	2b09      	cmp	r3, #9
 8000d8e:	d905      	bls.n	8000d9c <str_to_uint8+0x2c>
 8000d90:	f1a1 0361 	sub.w	r3, r1, #97	; 0x61
 8000d94:	2b05      	cmp	r3, #5
 8000d96:	d805      	bhi.n	8000da4 <str_to_uint8+0x34>
 8000d98:	f1a1 0357 	sub.w	r3, r1, #87	; 0x57
 8000d9c:	011b      	lsls	r3, r3, #4
 8000d9e:	b2d8      	uxtb	r0, r3
 8000da0:	4310      	orrs	r0, r2
 8000da2:	4770      	bx	lr
 8000da4:	f1a1 0341 	sub.w	r3, r1, #65	; 0x41
 8000da8:	2b05      	cmp	r3, #5
 8000daa:	bf9d      	ittte	ls
 8000dac:	f1a1 0337 	subls.w	r3, r1, #55	; 0x37
 8000db0:	011b      	lslls	r3, r3, #4
 8000db2:	b2d8      	uxtbls	r0, r3
 8000db4:	20f0      	movhi	r0, #240	; 0xf0
 8000db6:	4310      	orrs	r0, r2
 8000db8:	4770      	bx	lr
 8000dba:	f1a0 0341 	sub.w	r3, r0, #65	; 0x41
 8000dbe:	2b05      	cmp	r3, #5
 8000dc0:	bf9a      	itte	ls
 8000dc2:	3837      	subls	r0, #55	; 0x37
 8000dc4:	b2c2      	uxtbls	r2, r0
 8000dc6:	22ff      	movhi	r2, #255	; 0xff
 8000dc8:	e7dd      	b.n	8000d86 <str_to_uint8+0x16>
 8000dca:	bf00      	nop

08000dcc <hexArray2asciiArray>:
 8000dcc:	b302      	cbz	r2, 8000e10 <hexArray2asciiArray+0x44>
 8000dce:	4402      	add	r2, r0
 8000dd0:	b530      	push	{r4, r5, lr}
 8000dd2:	f100 3cff 	add.w	ip, r0, #4294967295	; 0xffffffff
 8000dd6:	1e54      	subs	r4, r2, #1
 8000dd8:	2200      	movs	r2, #0
 8000dda:	f81c ef01 	ldrb.w	lr, [ip, #1]!
 8000dde:	188d      	adds	r5, r1, r2
 8000de0:	ea4f 131e 	mov.w	r3, lr, lsr #4
 8000de4:	f1be 0f9f 	cmp.w	lr, #159	; 0x9f
 8000de8:	bf8c      	ite	hi
 8000dea:	3337      	addhi	r3, #55	; 0x37
 8000dec:	3330      	addls	r3, #48	; 0x30
 8000dee:	702b      	strb	r3, [r5, #0]
 8000df0:	f89c 3000 	ldrb.w	r3, [ip]
 8000df4:	1c50      	adds	r0, r2, #1
 8000df6:	f003 030f 	and.w	r3, r3, #15
 8000dfa:	2b09      	cmp	r3, #9
 8000dfc:	b2c0      	uxtb	r0, r0
 8000dfe:	bf8c      	ite	hi
 8000e00:	3337      	addhi	r3, #55	; 0x37
 8000e02:	3330      	addls	r3, #48	; 0x30
 8000e04:	3202      	adds	r2, #2
 8000e06:	4564      	cmp	r4, ip
 8000e08:	540b      	strb	r3, [r1, r0]
 8000e0a:	b2d2      	uxtb	r2, r2
 8000e0c:	d1e5      	bne.n	8000dda <hexArray2asciiArray+0xe>
 8000e0e:	bd30      	pop	{r4, r5, pc}
 8000e10:	4770      	bx	lr
 8000e12:	bf00      	nop

08000e14 <dummy_SpeedOdo>:
 8000e14:	4684      	mov	ip, r0
 8000e16:	c90f      	ldmia	r1, {r0, r1, r2, r3}
 8000e18:	e88c 000f 	stmia.w	ip, {r0, r1, r2, r3}
 8000e1c:	4660      	mov	r0, ip
 8000e1e:	4770      	bx	lr

08000e20 <dummy_Cruise>:
 8000e20:	4684      	mov	ip, r0
 8000e22:	c90f      	ldmia	r1, {r0, r1, r2, r3}
 8000e24:	e88c 000f 	stmia.w	ip, {r0, r1, r2, r3}
 8000e28:	4660      	mov	r0, ip
 8000e2a:	4770      	bx	lr

08000e2c <dummy_Extras>:
 8000e2c:	4684      	mov	ip, r0
 8000e2e:	c90f      	ldmia	r1, {r0, r1, r2, r3}
 8000e30:	e88c 000f 	stmia.w	ip, {r0, r1, r2, r3}
 8000e34:	4660      	mov	r0, ip
 8000e36:	4770      	bx	lr

08000e38 <get_vehicle_settings_data>:
 8000e38:	4800      	ldr	r0, [pc, #0]	; (8000e3c <get_vehicle_settings_data+0x4>)
 8000e3a:	4770      	bx	lr
 8000e3c:	200000b8 	.word	0x200000b8

08000e40 <vehicle_model>:
 8000e40:	4b01      	ldr	r3, [pc, #4]	; (8000e48 <vehicle_model+0x8>)
 8000e42:	8818      	ldrh	r0, [r3, #0]
 8000e44:	4770      	bx	lr
 8000e46:	bf00      	nop
 8000e48:	200000b8 	.word	0x200000b8

08000e4c <vehicle_modes>:
 8000e4c:	4b01      	ldr	r3, [pc, #4]	; (8000e54 <vehicle_modes+0x8>)
 8000e4e:	78d8      	ldrb	r0, [r3, #3]
 8000e50:	4770      	bx	lr
 8000e52:	bf00      	nop
 8000e54:	200000b8 	.word	0x200000b8

08000e58 <vehicle_odo_mlt>:
 8000e58:	4b01      	ldr	r3, [pc, #4]	; (8000e60 <vehicle_odo_mlt+0x8>)
 8000e5a:	7958      	ldrb	r0, [r3, #5]
 8000e5c:	4770      	bx	lr
 8000e5e:	bf00      	nop
 8000e60:	200000b8 	.word	0x200000b8

08000e64 <vehicle_crs_mlt>:
 8000e64:	4b01      	ldr	r3, [pc, #4]	; (8000e6c <vehicle_crs_mlt+0x8>)
 8000e66:	7998      	ldrb	r0, [r3, #6]
 8000e68:	4770      	bx	lr
 8000e6a:	bf00      	nop
 8000e6c:	200000b8 	.word	0x200000b8

08000e70 <vehicle_spd_id>:
 8000e70:	4b01      	ldr	r3, [pc, #4]	; (8000e78 <vehicle_spd_id+0x8>)
 8000e72:	6898      	ldr	r0, [r3, #8]
 8000e74:	4770      	bx	lr
 8000e76:	bf00      	nop
 8000e78:	200000b8 	.word	0x200000b8

08000e7c <vehicle_odo_id>:
 8000e7c:	4b01      	ldr	r3, [pc, #4]	; (8000e84 <vehicle_odo_id+0x8>)
 8000e7e:	6918      	ldr	r0, [r3, #16]
 8000e80:	4770      	bx	lr
 8000e82:	bf00      	nop
 8000e84:	200000b8 	.word	0x200000b8

08000e88 <vehicle_ext_id>:
 8000e88:	4b01      	ldr	r3, [pc, #4]	; (8000e90 <vehicle_ext_id+0x8>)
 8000e8a:	68d8      	ldr	r0, [r3, #12]
 8000e8c:	4770      	bx	lr
 8000e8e:	bf00      	nop
 8000e90:	200000b8 	.word	0x200000b8

08000e94 <vehicle_calibrate_spd>:
 8000e94:	b510      	push	{r4, lr}
 8000e96:	4a05      	ldr	r2, [pc, #20]	; (8000eac <vehicle_calibrate_spd+0x18>)
 8000e98:	b084      	sub	sp, #16
 8000e9a:	6994      	ldr	r4, [r2, #24]
 8000e9c:	7912      	ldrb	r2, [r2, #4]
 8000e9e:	460b      	mov	r3, r1
 8000ea0:	4601      	mov	r1, r0
 8000ea2:	4668      	mov	r0, sp
 8000ea4:	47a0      	blx	r4
 8000ea6:	b004      	add	sp, #16
 8000ea8:	bd10      	pop	{r4, pc}
 8000eaa:	bf00      	nop
 8000eac:	200000b8 	.word	0x200000b8

08000eb0 <vehicle_calibrate_odo>:
 8000eb0:	b510      	push	{r4, lr}
 8000eb2:	4a05      	ldr	r2, [pc, #20]	; (8000ec8 <vehicle_calibrate_odo+0x18>)
 8000eb4:	b084      	sub	sp, #16
 8000eb6:	69d4      	ldr	r4, [r2, #28]
 8000eb8:	7912      	ldrb	r2, [r2, #4]
 8000eba:	460b      	mov	r3, r1
 8000ebc:	4601      	mov	r1, r0
 8000ebe:	4668      	mov	r0, sp
 8000ec0:	47a0      	blx	r4
 8000ec2:	b004      	add	sp, #16
 8000ec4:	bd10      	pop	{r4, pc}
 8000ec6:	bf00      	nop
 8000ec8:	200000b8 	.word	0x200000b8

08000ecc <vehicle_calibrate_crs>:
 8000ecc:	b510      	push	{r4, lr}
 8000ece:	4b04      	ldr	r3, [pc, #16]	; (8000ee0 <vehicle_calibrate_crs+0x14>)
 8000ed0:	b084      	sub	sp, #16
 8000ed2:	4601      	mov	r1, r0
 8000ed4:	6a1c      	ldr	r4, [r3, #32]
 8000ed6:	799a      	ldrb	r2, [r3, #6]
 8000ed8:	4668      	mov	r0, sp
 8000eda:	47a0      	blx	r4
 8000edc:	b004      	add	sp, #16
 8000ede:	bd10      	pop	{r4, pc}
 8000ee0:	200000b8 	.word	0x200000b8

08000ee4 <vehicle_calibrate_ext>:
 8000ee4:	b510      	push	{r4, lr}
 8000ee6:	4b04      	ldr	r3, [pc, #16]	; (8000ef8 <vehicle_calibrate_ext+0x14>)
 8000ee8:	b084      	sub	sp, #16
 8000eea:	4601      	mov	r1, r0
 8000eec:	6a5c      	ldr	r4, [r3, #36]	; 0x24
 8000eee:	79da      	ldrb	r2, [r3, #7]
 8000ef0:	4668      	mov	r0, sp
 8000ef2:	47a0      	blx	r4
 8000ef4:	b004      	add	sp, #16
 8000ef6:	bd10      	pop	{r4, pc}
 8000ef8:	200000b8 	.word	0x200000b8

08000efc <vehicle_set_model>:
 8000efc:	4b0c      	ldr	r3, [pc, #48]	; (8000f30 <vehicle_set_model+0x34>)
 8000efe:	490d      	ldr	r1, [pc, #52]	; (8000f34 <vehicle_set_model+0x38>)
 8000f00:	f640 72ff 	movw	r2, #4095	; 0xfff
 8000f04:	b410      	push	{r4}
 8000f06:	f246 4c64 	movw	ip, #25700	; 0x6464
 8000f0a:	4c0b      	ldr	r4, [pc, #44]	; (8000f38 <vehicle_set_model+0x3c>)
 8000f0c:	8018      	strh	r0, [r3, #0]
 8000f0e:	e9c3 2202 	strd	r2, r2, [r3, #8]
 8000f12:	e9c3 2204 	strd	r2, r2, [r3, #16]
 8000f16:	4809      	ldr	r0, [pc, #36]	; (8000f3c <vehicle_set_model+0x40>)
 8000f18:	4a09      	ldr	r2, [pc, #36]	; (8000f40 <vehicle_set_model+0x44>)
 8000f1a:	f8a3 c006 	strh.w	ip, [r3, #6]
 8000f1e:	f8c3 4002 	str.w	r4, [r3, #2]
 8000f22:	e9c3 1106 	strd	r1, r1, [r3, #24]
 8000f26:	e9c3 0208 	strd	r0, r2, [r3, #32]
 8000f2a:	bc10      	pop	{r4}
 8000f2c:	4770      	bx	lr
 8000f2e:	bf00      	nop
 8000f30:	200000b8 	.word	0x200000b8
 8000f34:	08000e15 	.word	0x08000e15
 8000f38:	64640000 	.word	0x64640000
 8000f3c:	08000e21 	.word	0x08000e21
 8000f40:	08000e2d 	.word	0x08000e2d

08000f44 <vehicle_set_modes>:
 8000f44:	4b01      	ldr	r3, [pc, #4]	; (8000f4c <vehicle_set_modes+0x8>)
 8000f46:	70d8      	strb	r0, [r3, #3]
 8000f48:	4770      	bx	lr
 8000f4a:	bf00      	nop
 8000f4c:	200000b8 	.word	0x200000b8

08000f50 <vehicle_set_odo_mlt>:
 8000f50:	4b01      	ldr	r3, [pc, #4]	; (8000f58 <vehicle_set_odo_mlt+0x8>)
 8000f52:	7158      	strb	r0, [r3, #5]
 8000f54:	4770      	bx	lr
 8000f56:	bf00      	nop
 8000f58:	200000b8 	.word	0x200000b8

08000f5c <vehicle_set_spd_mlt>:
 8000f5c:	4b01      	ldr	r3, [pc, #4]	; (8000f64 <vehicle_set_spd_mlt+0x8>)
 8000f5e:	7118      	strb	r0, [r3, #4]
 8000f60:	4770      	bx	lr
 8000f62:	bf00      	nop
 8000f64:	200000b8 	.word	0x200000b8

08000f68 <vehicle_set_crs_mlt>:
 8000f68:	4b01      	ldr	r3, [pc, #4]	; (8000f70 <vehicle_set_crs_mlt+0x8>)
 8000f6a:	7198      	strb	r0, [r3, #6]
 8000f6c:	4770      	bx	lr
 8000f6e:	bf00      	nop
 8000f70:	200000b8 	.word	0x200000b8

08000f74 <vehicle_set_tyr_thr>:
 8000f74:	4b01      	ldr	r3, [pc, #4]	; (8000f7c <vehicle_set_tyr_thr+0x8>)
 8000f76:	71d8      	strb	r0, [r3, #7]
 8000f78:	4770      	bx	lr
 8000f7a:	bf00      	nop
 8000f7c:	200000b8 	.word	0x200000b8

08000f80 <initVehicleSettings>:
 8000f80:	4b16      	ldr	r3, [pc, #88]	; (8000fdc <initVehicleSettings+0x5c>)
 8000f82:	4917      	ldr	r1, [pc, #92]	; (8000fe0 <initVehicleSettings+0x60>)
 8000f84:	881a      	ldrh	r2, [r3, #0]
 8000f86:	2a18      	cmp	r2, #24
 8000f88:	b430      	push	{r4, r5}
 8000f8a:	f640 72ff 	movw	r2, #4095	; 0xfff
 8000f8e:	d812      	bhi.n	8000fb6 <initVehicleSettings+0x36>
 8000f90:	4c14      	ldr	r4, [pc, #80]	; (8000fe4 <initVehicleSettings+0x64>)
 8000f92:	4815      	ldr	r0, [pc, #84]	; (8000fe8 <initVehicleSettings+0x68>)
 8000f94:	f8c3 4002 	str.w	r4, [r3, #2]
 8000f98:	f246 4564 	movw	r5, #25700	; 0x6464
 8000f9c:	e9c3 2202 	strd	r2, r2, [r3, #8]
 8000fa0:	e9c3 2204 	strd	r2, r2, [r3, #16]
 8000fa4:	4a11      	ldr	r2, [pc, #68]	; (8000fec <initVehicleSettings+0x6c>)
 8000fa6:	80dd      	strh	r5, [r3, #6]
 8000fa8:	e9c3 0208 	strd	r0, r2, [r3, #32]
 8000fac:	bc30      	pop	{r4, r5}
 8000fae:	2000      	movs	r0, #0
 8000fb0:	e9c3 1106 	strd	r1, r1, [r3, #24]
 8000fb4:	4770      	bx	lr
 8000fb6:	2500      	movs	r5, #0
 8000fb8:	e9c3 2202 	strd	r2, r2, [r3, #8]
 8000fbc:	e9c3 2204 	strd	r2, r2, [r3, #16]
 8000fc0:	f04f 3264 	mov.w	r2, #1684300900	; 0x64646464
 8000fc4:	4c08      	ldr	r4, [pc, #32]	; (8000fe8 <initVehicleSettings+0x68>)
 8000fc6:	4809      	ldr	r0, [pc, #36]	; (8000fec <initVehicleSettings+0x6c>)
 8000fc8:	601d      	str	r5, [r3, #0]
 8000fca:	605a      	str	r2, [r3, #4]
 8000fcc:	621c      	str	r4, [r3, #32]
 8000fce:	6258      	str	r0, [r3, #36]	; 0x24
 8000fd0:	bc30      	pop	{r4, r5}
 8000fd2:	2000      	movs	r0, #0
 8000fd4:	e9c3 1106 	strd	r1, r1, [r3, #24]
 8000fd8:	4770      	bx	lr
 8000fda:	bf00      	nop
 8000fdc:	200000b8 	.word	0x200000b8
 8000fe0:	08000e15 	.word	0x08000e15
 8000fe4:	64640000 	.word	0x64640000
 8000fe8:	08000e21 	.word	0x08000e21
 8000fec:	08000e2d 	.word	0x08000e2d

08000ff0 <reset_hw_watchdog>:
 8000ff0:	4770      	bx	lr
 8000ff2:	bf00      	nop

08000ff4 <Init_IWDG>:
 8000ff4:	4b09      	ldr	r3, [pc, #36]	; (800101c <Init_IWDG+0x28>)
 8000ff6:	b410      	push	{r4}
 8000ff8:	2206      	movs	r2, #6
 8000ffa:	f245 5455 	movw	r4, #21845	; 0x5555
 8000ffe:	eb00 0080 	add.w	r0, r0, r0, lsl #2
 8001002:	601c      	str	r4, [r3, #0]
 8001004:	0940      	lsrs	r0, r0, #5
 8001006:	605a      	str	r2, [r3, #4]
 8001008:	f64a 21aa 	movw	r1, #43690	; 0xaaaa
 800100c:	f64c 42cc 	movw	r2, #52428	; 0xcccc
 8001010:	6098      	str	r0, [r3, #8]
 8001012:	bc10      	pop	{r4}
 8001014:	6019      	str	r1, [r3, #0]
 8001016:	601a      	str	r2, [r3, #0]
 8001018:	4770      	bx	lr
 800101a:	bf00      	nop
 800101c:	40003000 	.word	0x40003000

08001020 <IWDG_reset>:
 8001020:	4b02      	ldr	r3, [pc, #8]	; (800102c <IWDG_reset+0xc>)
 8001022:	f64a 22aa 	movw	r2, #43690	; 0xaaaa
 8001026:	601a      	str	r2, [r3, #0]
 8001028:	4770      	bx	lr
 800102a:	bf00      	nop
 800102c:	40003000 	.word	0x40003000

08001030 <memchip_make_app_address>:
 8001030:	3801      	subs	r0, #1
 8001032:	b2c0      	uxtb	r0, r0
 8001034:	2805      	cmp	r0, #5
 8001036:	bf9a      	itte	ls
 8001038:	4b02      	ldrls	r3, [pc, #8]	; (8001044 <memchip_make_app_address+0x14>)
 800103a:	f853 0020 	ldrls.w	r0, [r3, r0, lsl #2]
 800103e:	2000      	movhi	r0, #0
 8001040:	4770      	bx	lr
 8001042:	bf00      	nop
 8001044:	08004bc0 	.word	0x08004bc0

08001048 <init_device_general_pinout>:
 8001048:	494d      	ldr	r1, [pc, #308]	; (8001180 <init_device_general_pinout+0x138>)
 800104a:	4a4e      	ldr	r2, [pc, #312]	; (8001184 <init_device_general_pinout+0x13c>)
 800104c:	6808      	ldr	r0, [r1, #0]
 800104e:	4b4e      	ldr	r3, [pc, #312]	; (8001188 <init_device_general_pinout+0x140>)
 8001050:	f420 5040 	bic.w	r0, r0, #12288	; 0x3000
 8001054:	6008      	str	r0, [r1, #0]
 8001056:	6888      	ldr	r0, [r1, #8]
 8001058:	f420 5040 	bic.w	r0, r0, #12288	; 0x3000
 800105c:	6088      	str	r0, [r1, #8]
 800105e:	68c8      	ldr	r0, [r1, #12]
 8001060:	f420 5040 	bic.w	r0, r0, #12288	; 0x3000
 8001064:	60c8      	str	r0, [r1, #12]
 8001066:	6808      	ldr	r0, [r1, #0]
 8001068:	f440 5080 	orr.w	r0, r0, #4096	; 0x1000
 800106c:	6008      	str	r0, [r1, #0]
 800106e:	6988      	ldr	r0, [r1, #24]
 8001070:	f040 0040 	orr.w	r0, r0, #64	; 0x40
 8001074:	6188      	str	r0, [r1, #24]
 8001076:	6811      	ldr	r1, [r2, #0]
 8001078:	f421 7140 	bic.w	r1, r1, #768	; 0x300
 800107c:	6011      	str	r1, [r2, #0]
 800107e:	6891      	ldr	r1, [r2, #8]
 8001080:	f421 7140 	bic.w	r1, r1, #768	; 0x300
 8001084:	6091      	str	r1, [r2, #8]
 8001086:	68d1      	ldr	r1, [r2, #12]
 8001088:	f421 7140 	bic.w	r1, r1, #768	; 0x300
 800108c:	60d1      	str	r1, [r2, #12]
 800108e:	6891      	ldr	r1, [r2, #8]
 8001090:	f441 7140 	orr.w	r1, r1, #768	; 0x300
 8001094:	6091      	str	r1, [r2, #8]
 8001096:	6991      	ldr	r1, [r2, #24]
 8001098:	f441 1180 	orr.w	r1, r1, #1048576	; 0x100000
 800109c:	6191      	str	r1, [r2, #24]
 800109e:	681a      	ldr	r2, [r3, #0]
 80010a0:	f022 0203 	bic.w	r2, r2, #3
 80010a4:	601a      	str	r2, [r3, #0]
 80010a6:	689a      	ldr	r2, [r3, #8]
 80010a8:	f022 0203 	bic.w	r2, r2, #3
 80010ac:	609a      	str	r2, [r3, #8]
 80010ae:	68da      	ldr	r2, [r3, #12]
 80010b0:	f022 0203 	bic.w	r2, r2, #3
 80010b4:	60da      	str	r2, [r3, #12]
 80010b6:	681a      	ldr	r2, [r3, #0]
 80010b8:	f042 0201 	orr.w	r2, r2, #1
 80010bc:	601a      	str	r2, [r3, #0]
 80010be:	6a1a      	ldr	r2, [r3, #32]
 80010c0:	f042 0201 	orr.w	r2, r2, #1
 80010c4:	621a      	str	r2, [r3, #32]
 80010c6:	6a1a      	ldr	r2, [r3, #32]
 80010c8:	f042 0204 	orr.w	r2, r2, #4
 80010cc:	621a      	str	r2, [r3, #32]
 80010ce:	699a      	ldr	r2, [r3, #24]
 80010d0:	f042 0201 	orr.w	r2, r2, #1
 80010d4:	619a      	str	r2, [r3, #24]
 80010d6:	681a      	ldr	r2, [r3, #0]
 80010d8:	f022 02c0 	bic.w	r2, r2, #192	; 0xc0
 80010dc:	601a      	str	r2, [r3, #0]
 80010de:	689a      	ldr	r2, [r3, #8]
 80010e0:	f022 02c0 	bic.w	r2, r2, #192	; 0xc0
 80010e4:	609a      	str	r2, [r3, #8]
 80010e6:	68da      	ldr	r2, [r3, #12]
 80010e8:	f022 02c0 	bic.w	r2, r2, #192	; 0xc0
 80010ec:	60da      	str	r2, [r3, #12]
 80010ee:	681a      	ldr	r2, [r3, #0]
 80010f0:	f042 0280 	orr.w	r2, r2, #128	; 0x80
 80010f4:	601a      	str	r2, [r3, #0]
 80010f6:	689a      	ldr	r2, [r3, #8]
 80010f8:	f042 02c0 	orr.w	r2, r2, #192	; 0xc0
 80010fc:	609a      	str	r2, [r3, #8]
 80010fe:	6a1a      	ldr	r2, [r3, #32]
 8001100:	f442 5280 	orr.w	r2, r2, #4096	; 0x1000
 8001104:	621a      	str	r2, [r3, #32]
 8001106:	6a1a      	ldr	r2, [r3, #32]
 8001108:	f442 4280 	orr.w	r2, r2, #16384	; 0x4000
 800110c:	621a      	str	r2, [r3, #32]
 800110e:	681a      	ldr	r2, [r3, #0]
 8001110:	f422 7240 	bic.w	r2, r2, #768	; 0x300
 8001114:	601a      	str	r2, [r3, #0]
 8001116:	689a      	ldr	r2, [r3, #8]
 8001118:	f422 7240 	bic.w	r2, r2, #768	; 0x300
 800111c:	609a      	str	r2, [r3, #8]
 800111e:	68da      	ldr	r2, [r3, #12]
 8001120:	f422 7240 	bic.w	r2, r2, #768	; 0x300
 8001124:	60da      	str	r2, [r3, #12]
 8001126:	681a      	ldr	r2, [r3, #0]
 8001128:	f442 7200 	orr.w	r2, r2, #512	; 0x200
 800112c:	601a      	str	r2, [r3, #0]
 800112e:	689a      	ldr	r2, [r3, #8]
 8001130:	f442 7240 	orr.w	r2, r2, #768	; 0x300
 8001134:	609a      	str	r2, [r3, #8]
 8001136:	6a1a      	ldr	r2, [r3, #32]
 8001138:	f442 3280 	orr.w	r2, r2, #65536	; 0x10000
 800113c:	621a      	str	r2, [r3, #32]
 800113e:	6a1a      	ldr	r2, [r3, #32]
 8001140:	f442 2280 	orr.w	r2, r2, #262144	; 0x40000
 8001144:	621a      	str	r2, [r3, #32]
 8001146:	681a      	ldr	r2, [r3, #0]
 8001148:	f422 6240 	bic.w	r2, r2, #3072	; 0xc00
 800114c:	601a      	str	r2, [r3, #0]
 800114e:	689a      	ldr	r2, [r3, #8]
 8001150:	f422 6240 	bic.w	r2, r2, #3072	; 0xc00
 8001154:	609a      	str	r2, [r3, #8]
 8001156:	68da      	ldr	r2, [r3, #12]
 8001158:	f422 6240 	bic.w	r2, r2, #3072	; 0xc00
 800115c:	60da      	str	r2, [r3, #12]
 800115e:	681a      	ldr	r2, [r3, #0]
 8001160:	f442 6200 	orr.w	r2, r2, #2048	; 0x800
 8001164:	601a      	str	r2, [r3, #0]
 8001166:	689a      	ldr	r2, [r3, #8]
 8001168:	f442 6240 	orr.w	r2, r2, #3072	; 0xc00
 800116c:	609a      	str	r2, [r3, #8]
 800116e:	6a1a      	ldr	r2, [r3, #32]
 8001170:	f442 1280 	orr.w	r2, r2, #1048576	; 0x100000
 8001174:	621a      	str	r2, [r3, #32]
 8001176:	6a1a      	ldr	r2, [r3, #32]
 8001178:	f442 0280 	orr.w	r2, r2, #4194304	; 0x400000
 800117c:	621a      	str	r2, [r3, #32]
 800117e:	4770      	bx	lr
 8001180:	40020000 	.word	0x40020000
 8001184:	40021000 	.word	0x40021000
 8001188:	40020400 	.word	0x40020400

0800118c <get_board_name>:
 800118c:	4800      	ldr	r0, [pc, #0]	; (8001190 <get_board_name+0x4>)
 800118e:	4770      	bx	lr
 8001190:	20000018 	.word	0x20000018

08001194 <set_bor_level>:
 8001194:	2803      	cmp	r0, #3
 8001196:	d844      	bhi.n	8001222 <set_bor_level+0x8e>
 8001198:	4a22      	ldr	r2, [pc, #136]	; (8001224 <set_bor_level+0x90>)
 800119a:	6953      	ldr	r3, [r2, #20]
 800119c:	f3c3 0381 	ubfx	r3, r3, #2, #2
 80011a0:	4298      	cmp	r0, r3
 80011a2:	d03e      	beq.n	8001222 <set_bor_level+0x8e>
 80011a4:	b410      	push	{r4}
 80011a6:	68d3      	ldr	r3, [r2, #12]
 80011a8:	03db      	lsls	r3, r3, #15
 80011aa:	d4fc      	bmi.n	80011a6 <set_bor_level+0x12>
 80011ac:	4c1e      	ldr	r4, [pc, #120]	; (8001228 <set_bor_level+0x94>)
 80011ae:	4b1f      	ldr	r3, [pc, #124]	; (800122c <set_bor_level+0x98>)
 80011b0:	491c      	ldr	r1, [pc, #112]	; (8001224 <set_bor_level+0x90>)
 80011b2:	6054      	str	r4, [r2, #4]
 80011b4:	6053      	str	r3, [r2, #4]
 80011b6:	68cb      	ldr	r3, [r1, #12]
 80011b8:	03dc      	lsls	r4, r3, #15
 80011ba:	d4fc      	bmi.n	80011b6 <set_bor_level+0x22>
 80011bc:	4c1c      	ldr	r4, [pc, #112]	; (8001230 <set_bor_level+0x9c>)
 80011be:	4b1d      	ldr	r3, [pc, #116]	; (8001234 <set_bor_level+0xa0>)
 80011c0:	4a18      	ldr	r2, [pc, #96]	; (8001224 <set_bor_level+0x90>)
 80011c2:	608c      	str	r4, [r1, #8]
 80011c4:	608b      	str	r3, [r1, #8]
 80011c6:	68d3      	ldr	r3, [r2, #12]
 80011c8:	03d9      	lsls	r1, r3, #15
 80011ca:	d4fc      	bmi.n	80011c6 <set_bor_level+0x32>
 80011cc:	6953      	ldr	r3, [r2, #20]
 80011ce:	4915      	ldr	r1, [pc, #84]	; (8001224 <set_bor_level+0x90>)
 80011d0:	f023 030c 	bic.w	r3, r3, #12
 80011d4:	6153      	str	r3, [r2, #20]
 80011d6:	68cb      	ldr	r3, [r1, #12]
 80011d8:	03db      	lsls	r3, r3, #15
 80011da:	d4fc      	bmi.n	80011d6 <set_bor_level+0x42>
 80011dc:	694b      	ldr	r3, [r1, #20]
 80011de:	4a11      	ldr	r2, [pc, #68]	; (8001224 <set_bor_level+0x90>)
 80011e0:	0080      	lsls	r0, r0, #2
 80011e2:	b2c0      	uxtb	r0, r0
 80011e4:	4318      	orrs	r0, r3
 80011e6:	6148      	str	r0, [r1, #20]
 80011e8:	68d3      	ldr	r3, [r2, #12]
 80011ea:	03dc      	lsls	r4, r3, #15
 80011ec:	d4fc      	bmi.n	80011e8 <set_bor_level+0x54>
 80011ee:	6953      	ldr	r3, [r2, #20]
 80011f0:	490c      	ldr	r1, [pc, #48]	; (8001224 <set_bor_level+0x90>)
 80011f2:	f043 0302 	orr.w	r3, r3, #2
 80011f6:	6153      	str	r3, [r2, #20]
 80011f8:	68cb      	ldr	r3, [r1, #12]
 80011fa:	03d8      	lsls	r0, r3, #15
 80011fc:	d4fc      	bmi.n	80011f8 <set_bor_level+0x64>
 80011fe:	694b      	ldr	r3, [r1, #20]
 8001200:	4a08      	ldr	r2, [pc, #32]	; (8001224 <set_bor_level+0x90>)
 8001202:	f043 0301 	orr.w	r3, r3, #1
 8001206:	614b      	str	r3, [r1, #20]
 8001208:	68d3      	ldr	r3, [r2, #12]
 800120a:	03d9      	lsls	r1, r3, #15
 800120c:	d4fc      	bmi.n	8001208 <set_bor_level+0x74>
 800120e:	6913      	ldr	r3, [r2, #16]
 8001210:	4904      	ldr	r1, [pc, #16]	; (8001224 <set_bor_level+0x90>)
 8001212:	f043 4300 	orr.w	r3, r3, #2147483648	; 0x80000000
 8001216:	6113      	str	r3, [r2, #16]
 8001218:	68cb      	ldr	r3, [r1, #12]
 800121a:	03db      	lsls	r3, r3, #15
 800121c:	d4fc      	bmi.n	8001218 <set_bor_level+0x84>
 800121e:	bc10      	pop	{r4}
 8001220:	4770      	bx	lr
 8001222:	4770      	bx	lr
 8001224:	40023c00 	.word	0x40023c00
 8001228:	45670123 	.word	0x45670123
 800122c:	cdef89ab 	.word	0xcdef89ab
 8001230:	08192a3b 	.word	0x08192a3b
 8001234:	4c5d6e7f 	.word	0x4c5d6e7f

08001238 <read_can1_buffer>:
 8001238:	490b      	ldr	r1, [pc, #44]	; (8001268 <read_can1_buffer+0x30>)
 800123a:	888b      	ldrh	r3, [r1, #4]
 800123c:	f5a1 4c80 	sub.w	ip, r1, #16384	; 0x4000
 8001240:	eb0c 1203 	add.w	r2, ip, r3, lsl #4
 8001244:	3301      	adds	r3, #1
 8001246:	b29b      	uxth	r3, r3
 8001248:	f5b3 6f80 	cmp.w	r3, #1024	; 0x400
 800124c:	bf08      	it	eq
 800124e:	2300      	moveq	r3, #0
 8001250:	eb0c 1c00 	add.w	ip, ip, r0, lsl #4
 8001254:	808b      	strh	r3, [r1, #4]
 8001256:	ca0f      	ldmia	r2, {r0, r1, r2, r3}
 8001258:	f50c 4c80 	add.w	ip, ip, #16384	; 0x4000
 800125c:	f10c 0c18 	add.w	ip, ip, #24
 8001260:	e88c 000f 	stmia.w	ip, {r0, r1, r2, r3}
 8001264:	4770      	bx	lr
 8001266:	bf00      	nop
 8001268:	200040e0 	.word	0x200040e0

0800126c <read_can2_buffer>:
 800126c:	490c      	ldr	r1, [pc, #48]	; (80012a0 <read_can2_buffer+0x34>)
 800126e:	f8b1 3054 	ldrh.w	r3, [r1, #84]	; 0x54
 8001272:	f5a1 4c80 	sub.w	ip, r1, #16384	; 0x4000
 8001276:	eb0c 1203 	add.w	r2, ip, r3, lsl #4
 800127a:	3301      	adds	r3, #1
 800127c:	b29b      	uxth	r3, r3
 800127e:	f5b3 6f80 	cmp.w	r3, #1024	; 0x400
 8001282:	bf08      	it	eq
 8001284:	2300      	moveq	r3, #0
 8001286:	3250      	adds	r2, #80	; 0x50
 8001288:	eb0c 1c00 	add.w	ip, ip, r0, lsl #4
 800128c:	f8a1 3054 	strh.w	r3, [r1, #84]	; 0x54
 8001290:	ca0f      	ldmia	r2, {r0, r1, r2, r3}
 8001292:	f50c 4c80 	add.w	ip, ip, #16384	; 0x4000
 8001296:	f10c 0c68 	add.w	ip, ip, #104	; 0x68
 800129a:	e88c 000f 	stmia.w	ip, {r0, r1, r2, r3}
 800129e:	4770      	bx	lr
 80012a0:	200080e0 	.word	0x200080e0

080012a4 <read_can1_buf_free_size>:
 80012a4:	4a06      	ldr	r2, [pc, #24]	; (80012c0 <read_can1_buf_free_size+0x1c>)
 80012a6:	88d3      	ldrh	r3, [r2, #6]
 80012a8:	8890      	ldrh	r0, [r2, #4]
 80012aa:	4283      	cmp	r3, r0
 80012ac:	d005      	beq.n	80012ba <read_can1_buf_free_size+0x16>
 80012ae:	bf86      	itte	hi
 80012b0:	1a18      	subhi	r0, r3, r0
 80012b2:	f5c0 6080 	rsbhi	r0, r0, #1024	; 0x400
 80012b6:	1ac0      	subls	r0, r0, r3
 80012b8:	4770      	bx	lr
 80012ba:	f44f 6080 	mov.w	r0, #1024	; 0x400
 80012be:	4770      	bx	lr
 80012c0:	200040e0 	.word	0x200040e0

080012c4 <read_can2_buf_free_size>:
 80012c4:	4a07      	ldr	r2, [pc, #28]	; (80012e4 <read_can2_buf_free_size+0x20>)
 80012c6:	f8b2 3056 	ldrh.w	r3, [r2, #86]	; 0x56
 80012ca:	f8b2 0054 	ldrh.w	r0, [r2, #84]	; 0x54
 80012ce:	4283      	cmp	r3, r0
 80012d0:	d005      	beq.n	80012de <read_can2_buf_free_size+0x1a>
 80012d2:	bf86      	itte	hi
 80012d4:	1a18      	subhi	r0, r3, r0
 80012d6:	f5c0 6080 	rsbhi	r0, r0, #1024	; 0x400
 80012da:	1ac0      	subls	r0, r0, r3
 80012dc:	4770      	bx	lr
 80012de:	f44f 6080 	mov.w	r0, #1024	; 0x400
 80012e2:	4770      	bx	lr
 80012e4:	200080e0 	.word	0x200080e0

080012e8 <write_can1_buffer>:
 80012e8:	b510      	push	{r4, lr}
 80012ea:	4c0e      	ldr	r4, [pc, #56]	; (8001324 <write_can1_buffer+0x3c>)
 80012ec:	88e3      	ldrh	r3, [r4, #6]
 80012ee:	88a2      	ldrh	r2, [r4, #4]
 80012f0:	f103 0c01 	add.w	ip, r3, #1
 80012f4:	fa1f fc8c 	uxth.w	ip, ip
 80012f8:	f5bc 6f80 	cmp.w	ip, #1024	; 0x400
 80012fc:	bf08      	it	eq
 80012fe:	f04f 0c00 	moveq.w	ip, #0
 8001302:	4562      	cmp	r2, ip
 8001304:	d009      	beq.n	800131a <write_can1_buffer+0x32>
 8001306:	f5a4 4e80 	sub.w	lr, r4, #16384	; 0x4000
 800130a:	eb0e 1e03 	add.w	lr, lr, r3, lsl #4
 800130e:	c80f      	ldmia	r0, {r0, r1, r2, r3}
 8001310:	f8a4 c006 	strh.w	ip, [r4, #6]
 8001314:	e88e 000f 	stmia.w	lr, {r0, r1, r2, r3}
 8001318:	bd10      	pop	{r4, pc}
 800131a:	68a3      	ldr	r3, [r4, #8]
 800131c:	3301      	adds	r3, #1
 800131e:	60a3      	str	r3, [r4, #8]
 8001320:	bd10      	pop	{r4, pc}
 8001322:	bf00      	nop
 8001324:	200040e0 	.word	0x200040e0

08001328 <write_can2_buffer>:
 8001328:	b510      	push	{r4, lr}
 800132a:	4c10      	ldr	r4, [pc, #64]	; (800136c <write_can2_buffer+0x44>)
 800132c:	f8b4 c056 	ldrh.w	ip, [r4, #86]	; 0x56
 8001330:	f8b4 3054 	ldrh.w	r3, [r4, #84]	; 0x54
 8001334:	f10c 0e01 	add.w	lr, ip, #1
 8001338:	fa1f fe8e 	uxth.w	lr, lr
 800133c:	f5be 6f80 	cmp.w	lr, #1024	; 0x400
 8001340:	bf08      	it	eq
 8001342:	f04f 0e00 	moveq.w	lr, #0
 8001346:	4573      	cmp	r3, lr
 8001348:	d00b      	beq.n	8001362 <write_can2_buffer+0x3a>
 800134a:	c80f      	ldmia	r0, {r0, r1, r2, r3}
 800134c:	eb04 1c0c 	add.w	ip, r4, ip, lsl #4
 8001350:	f5ac 5c7e 	sub.w	ip, ip, #16256	; 0x3f80
 8001354:	f1ac 0c30 	sub.w	ip, ip, #48	; 0x30
 8001358:	e88c 000f 	stmia.w	ip, {r0, r1, r2, r3}
 800135c:	f8a4 e056 	strh.w	lr, [r4, #86]	; 0x56
 8001360:	bd10      	pop	{r4, pc}
 8001362:	6da3      	ldr	r3, [r4, #88]	; 0x58
 8001364:	3301      	adds	r3, #1
 8001366:	65a3      	str	r3, [r4, #88]	; 0x58
 8001368:	bd10      	pop	{r4, pc}
 800136a:	bf00      	nop
 800136c:	200080e0 	.word	0x200080e0

08001370 <can_buffer_init>:
 8001370:	4b13      	ldr	r3, [pc, #76]	; (80013c0 <can_buffer_init+0x50>)
 8001372:	4814      	ldr	r0, [pc, #80]	; (80013c4 <can_buffer_init+0x54>)
 8001374:	f503 4180 	add.w	r1, r3, #16384	; 0x4000
 8001378:	f503 4300 	add.w	r3, r3, #32768	; 0x8000
 800137c:	2200      	movs	r2, #0
 800137e:	b410      	push	{r4}
 8001380:	f8a1 2048 	strh.w	r2, [r1, #72]	; 0x48
 8001384:	f881 204a 	strb.w	r2, [r1, #74]	; 0x4a
 8001388:	e9c1 2201 	strd	r2, r2, [r1, #4]
 800138c:	4c0e      	ldr	r4, [pc, #56]	; (80013c8 <can_buffer_init+0x58>)
 800138e:	60ca      	str	r2, [r1, #12]
 8001390:	f8a3 2098 	strh.w	r2, [r3, #152]	; 0x98
 8001394:	f883 209a 	strb.w	r2, [r3, #154]	; 0x9a
 8001398:	e9c3 2215 	strd	r2, r2, [r3, #84]	; 0x54
 800139c:	65da      	str	r2, [r3, #92]	; 0x5c
 800139e:	4a0b      	ldr	r2, [pc, #44]	; (80013cc <can_buffer_init+0x5c>)
 80013a0:	600c      	str	r4, [r1, #0]
 80013a2:	4c0b      	ldr	r4, [pc, #44]	; (80013d0 <can_buffer_init+0x60>)
 80013a4:	64cc      	str	r4, [r1, #76]	; 0x4c
 80013a6:	e9c1 0204 	strd	r0, r2, [r1, #16]
 80013aa:	4a0a      	ldr	r2, [pc, #40]	; (80013d4 <can_buffer_init+0x64>)
 80013ac:	480a      	ldr	r0, [pc, #40]	; (80013d8 <can_buffer_init+0x68>)
 80013ae:	490b      	ldr	r1, [pc, #44]	; (80013dc <can_buffer_init+0x6c>)
 80013b0:	651a      	str	r2, [r3, #80]	; 0x50
 80013b2:	4a0b      	ldr	r2, [pc, #44]	; (80013e0 <can_buffer_init+0x70>)
 80013b4:	bc10      	pop	{r4}
 80013b6:	f8c3 209c 	str.w	r2, [r3, #156]	; 0x9c
 80013ba:	e9c3 0118 	strd	r0, r1, [r3, #96]	; 0x60
 80013be:	4770      	bx	lr
 80013c0:	200000e0 	.word	0x200000e0
 80013c4:	080012e9 	.word	0x080012e9
 80013c8:	40006400 	.word	0x40006400
 80013cc:	08001239 	.word	0x08001239
 80013d0:	080012a5 	.word	0x080012a5
 80013d4:	40006800 	.word	0x40006800
 80013d8:	08001329 	.word	0x08001329
 80013dc:	0800126d 	.word	0x0800126d
 80013e0:	080012c5 	.word	0x080012c5

080013e4 <Can_Transmit_BufferedMessage>:
 80013e4:	eb00 1301 	add.w	r3, r0, r1, lsl #4
 80013e8:	b430      	push	{r4, r5}
 80013ea:	2400      	movs	r4, #0
 80013ec:	f8d3 5180 	ldr.w	r5, [r3, #384]	; 0x180
 80013f0:	f8c3 4180 	str.w	r4, [r3, #384]	; 0x180
 80013f4:	f8d3 5184 	ldr.w	r5, [r3, #388]	; 0x184
 80013f8:	f8c3 4184 	str.w	r4, [r3, #388]	; 0x184
 80013fc:	f8d3 5188 	ldr.w	r5, [r3, #392]	; 0x188
 8001400:	f8c3 4188 	str.w	r4, [r3, #392]	; 0x188
 8001404:	f8d3 518c 	ldr.w	r5, [r3, #396]	; 0x18c
 8001408:	f8c3 418c 	str.w	r4, [r3, #396]	; 0x18c
 800140c:	8894      	ldrh	r4, [r2, #4]
 800140e:	b082      	sub	sp, #8
 8001410:	0109      	lsls	r1, r1, #4
 8001412:	2c00      	cmp	r4, #0
 8001414:	d162      	bne.n	80014dc <Can_Transmit_BufferedMessage+0xf8>
 8001416:	f8d3 4180 	ldr.w	r4, [r3, #384]	; 0x180
 800141a:	7855      	ldrb	r5, [r2, #1]
 800141c:	ea44 5445 	orr.w	r4, r4, r5, lsl #21
 8001420:	f8c3 4180 	str.w	r4, [r3, #384]	; 0x180
 8001424:	7814      	ldrb	r4, [r2, #0]
 8001426:	f8d3 5180 	ldr.w	r5, [r3, #384]	; 0x180
 800142a:	f004 041f 	and.w	r4, r4, #31
 800142e:	7014      	strb	r4, [r2, #0]
 8001430:	ea45 7444 	orr.w	r4, r5, r4, lsl #29
 8001434:	f8c3 4180 	str.w	r4, [r3, #384]	; 0x180
 8001438:	f8b2 c006 	ldrh.w	ip, [r2, #6]
 800143c:	f8d3 4184 	ldr.w	r4, [r3, #388]	; 0x184
 8001440:	f1bc 0f08 	cmp.w	ip, #8
 8001444:	ea4c 0404 	orr.w	r4, ip, r4
 8001448:	f8c3 4184 	str.w	r4, [r3, #388]	; 0x184
 800144c:	d836      	bhi.n	80014bc <Can_Transmit_BufferedMessage+0xd8>
 800144e:	4408      	add	r0, r1
 8001450:	7a11      	ldrb	r1, [r2, #8]
 8001452:	f8d0 4188 	ldr.w	r4, [r0, #392]	; 0x188
 8001456:	4321      	orrs	r1, r4
 8001458:	f8c0 1188 	str.w	r1, [r0, #392]	; 0x188
 800145c:	f8d0 1188 	ldr.w	r1, [r0, #392]	; 0x188
 8001460:	7a54      	ldrb	r4, [r2, #9]
 8001462:	ea41 2104 	orr.w	r1, r1, r4, lsl #8
 8001466:	f8c0 1188 	str.w	r1, [r0, #392]	; 0x188
 800146a:	f8d0 1188 	ldr.w	r1, [r0, #392]	; 0x188
 800146e:	7a94      	ldrb	r4, [r2, #10]
 8001470:	ea41 4104 	orr.w	r1, r1, r4, lsl #16
 8001474:	f8c0 1188 	str.w	r1, [r0, #392]	; 0x188
 8001478:	f8d0 1188 	ldr.w	r1, [r0, #392]	; 0x188
 800147c:	7ad4      	ldrb	r4, [r2, #11]
 800147e:	ea41 6104 	orr.w	r1, r1, r4, lsl #24
 8001482:	f8c0 1188 	str.w	r1, [r0, #392]	; 0x188
 8001486:	f8d0 418c 	ldr.w	r4, [r0, #396]	; 0x18c
 800148a:	7b11      	ldrb	r1, [r2, #12]
 800148c:	4321      	orrs	r1, r4
 800148e:	f8c0 118c 	str.w	r1, [r0, #396]	; 0x18c
 8001492:	f8d0 118c 	ldr.w	r1, [r0, #396]	; 0x18c
 8001496:	7b54      	ldrb	r4, [r2, #13]
 8001498:	ea41 2104 	orr.w	r1, r1, r4, lsl #8
 800149c:	f8c0 118c 	str.w	r1, [r0, #396]	; 0x18c
 80014a0:	f8d0 118c 	ldr.w	r1, [r0, #396]	; 0x18c
 80014a4:	7b94      	ldrb	r4, [r2, #14]
 80014a6:	ea41 4104 	orr.w	r1, r1, r4, lsl #16
 80014aa:	f8c0 118c 	str.w	r1, [r0, #396]	; 0x18c
 80014ae:	f8d0 118c 	ldr.w	r1, [r0, #396]	; 0x18c
 80014b2:	7bd2      	ldrb	r2, [r2, #15]
 80014b4:	ea41 6202 	orr.w	r2, r1, r2, lsl #24
 80014b8:	f8c0 218c 	str.w	r2, [r0, #396]	; 0x18c
 80014bc:	f8d3 2180 	ldr.w	r2, [r3, #384]	; 0x180
 80014c0:	2100      	movs	r1, #0
 80014c2:	f042 0201 	orr.w	r2, r2, #1
 80014c6:	f8c3 2180 	str.w	r2, [r3, #384]	; 0x180
 80014ca:	9101      	str	r1, [sp, #4]
 80014cc:	9b01      	ldr	r3, [sp, #4]
 80014ce:	1c5a      	adds	r2, r3, #1
 80014d0:	9201      	str	r2, [sp, #4]
 80014d2:	2b00      	cmp	r3, #0
 80014d4:	d0fa      	beq.n	80014cc <Can_Transmit_BufferedMessage+0xe8>
 80014d6:	b002      	add	sp, #8
 80014d8:	bc30      	pop	{r4, r5}
 80014da:	4770      	bx	lr
 80014dc:	f8d3 4180 	ldr.w	r4, [r3, #384]	; 0x180
 80014e0:	6815      	ldr	r5, [r2, #0]
 80014e2:	ea44 04c5 	orr.w	r4, r4, r5, lsl #3
 80014e6:	f8c3 4180 	str.w	r4, [r3, #384]	; 0x180
 80014ea:	f8d3 4180 	ldr.w	r4, [r3, #384]	; 0x180
 80014ee:	f044 0404 	orr.w	r4, r4, #4
 80014f2:	f8c3 4180 	str.w	r4, [r3, #384]	; 0x180
 80014f6:	e79f      	b.n	8001438 <Can_Transmit_BufferedMessage+0x54>

080014f8 <calculate_baudrate>:
 80014f8:	f5b0 7ffa 	cmp.w	r0, #500	; 0x1f4
 80014fc:	b082      	sub	sp, #8
 80014fe:	d00d      	beq.n	800151c <calculate_baudrate+0x24>
 8001500:	2300      	movs	r3, #0
 8001502:	461a      	mov	r2, r3
 8001504:	4619      	mov	r1, r3
 8001506:	2000      	movs	r0, #0
 8001508:	f361 0007 	bfi	r0, r1, #0, #8
 800150c:	f362 200f 	bfi	r0, r2, #8, #8
 8001510:	f363 4017 	bfi	r0, r3, #16, #8
 8001514:	f020 407f 	bic.w	r0, r0, #4278190080	; 0xff000000
 8001518:	b002      	add	sp, #8
 800151a:	4770      	bx	lr
 800151c:	2302      	movs	r3, #2
 800151e:	2209      	movs	r2, #9
 8001520:	2105      	movs	r1, #5
 8001522:	e7f0      	b.n	8001506 <calculate_baudrate+0xe>

08001524 <Can_Transmit_Message>:
 8001524:	b538      	push	{r3, r4, r5, lr}
 8001526:	4b0c      	ldr	r3, [pc, #48]	; (8001558 <Can_Transmit_Message+0x34>)
 8001528:	681a      	ldr	r2, [r3, #0]
 800152a:	4290      	cmp	r0, r2
 800152c:	4604      	mov	r4, r0
 800152e:	460d      	mov	r5, r1
 8001530:	d005      	beq.n	800153e <Can_Transmit_Message+0x1a>
 8001532:	4b0a      	ldr	r3, [pc, #40]	; (800155c <Can_Transmit_Message+0x38>)
 8001534:	6d1a      	ldr	r2, [r3, #80]	; 0x50
 8001536:	4294      	cmp	r4, r2
 8001538:	d008      	beq.n	800154c <Can_Transmit_Message+0x28>
 800153a:	2007      	movs	r0, #7
 800153c:	bd38      	pop	{r3, r4, r5, pc}
 800153e:	691b      	ldr	r3, [r3, #16]
 8001540:	4608      	mov	r0, r1
 8001542:	4798      	blx	r3
 8001544:	4b05      	ldr	r3, [pc, #20]	; (800155c <Can_Transmit_Message+0x38>)
 8001546:	6d1a      	ldr	r2, [r3, #80]	; 0x50
 8001548:	4294      	cmp	r4, r2
 800154a:	d1f6      	bne.n	800153a <Can_Transmit_Message+0x16>
 800154c:	4628      	mov	r0, r5
 800154e:	6e1b      	ldr	r3, [r3, #96]	; 0x60
 8001550:	4798      	blx	r3
 8001552:	2007      	movs	r0, #7
 8001554:	bd38      	pop	{r3, r4, r5, pc}
 8001556:	bf00      	nop
 8001558:	200040e0 	.word	0x200040e0
 800155c:	200080e0 	.word	0x200080e0

08001560 <Can_Recieve_StdMessage>:
 8001560:	eb00 1c01 	add.w	ip, r0, r1, lsl #4
 8001564:	b410      	push	{r4}
 8001566:	f8dc 31b0 	ldr.w	r3, [ip, #432]	; 0x1b0
 800156a:	f013 0304 	ands.w	r3, r3, #4
 800156e:	ea4f 1101 	mov.w	r1, r1, lsl #4
 8001572:	d029      	beq.n	80015c8 <Can_Recieve_StdMessage+0x68>
 8001574:	f8dc 31b0 	ldr.w	r3, [ip, #432]	; 0x1b0
 8001578:	08db      	lsrs	r3, r3, #3
 800157a:	6013      	str	r3, [r2, #0]
 800157c:	2301      	movs	r3, #1
 800157e:	4401      	add	r1, r0
 8001580:	f8dc 41b4 	ldr.w	r4, [ip, #436]	; 0x1b4
 8001584:	f8d1 01b8 	ldr.w	r0, [r1, #440]	; 0x1b8
 8001588:	7210      	strb	r0, [r2, #8]
 800158a:	f8d1 01b8 	ldr.w	r0, [r1, #440]	; 0x1b8
 800158e:	8093      	strh	r3, [r2, #4]
 8001590:	0a03      	lsrs	r3, r0, #8
 8001592:	7253      	strb	r3, [r2, #9]
 8001594:	f8d1 31b8 	ldr.w	r3, [r1, #440]	; 0x1b8
 8001598:	80d4      	strh	r4, [r2, #6]
 800159a:	0c1b      	lsrs	r3, r3, #16
 800159c:	7293      	strb	r3, [r2, #10]
 800159e:	f8d1 31b8 	ldr.w	r3, [r1, #440]	; 0x1b8
 80015a2:	bc10      	pop	{r4}
 80015a4:	0e1b      	lsrs	r3, r3, #24
 80015a6:	72d3      	strb	r3, [r2, #11]
 80015a8:	f8d1 31bc 	ldr.w	r3, [r1, #444]	; 0x1bc
 80015ac:	7313      	strb	r3, [r2, #12]
 80015ae:	f8d1 31bc 	ldr.w	r3, [r1, #444]	; 0x1bc
 80015b2:	0a1b      	lsrs	r3, r3, #8
 80015b4:	7353      	strb	r3, [r2, #13]
 80015b6:	f8d1 31bc 	ldr.w	r3, [r1, #444]	; 0x1bc
 80015ba:	0c1b      	lsrs	r3, r3, #16
 80015bc:	7393      	strb	r3, [r2, #14]
 80015be:	f8d1 31bc 	ldr.w	r3, [r1, #444]	; 0x1bc
 80015c2:	0e1b      	lsrs	r3, r3, #24
 80015c4:	73d3      	strb	r3, [r2, #15]
 80015c6:	4770      	bx	lr
 80015c8:	f8dc 41b0 	ldr.w	r4, [ip, #432]	; 0x1b0
 80015cc:	0d64      	lsrs	r4, r4, #21
 80015ce:	7054      	strb	r4, [r2, #1]
 80015d0:	f8dc 41b0 	ldr.w	r4, [ip, #432]	; 0x1b0
 80015d4:	0f64      	lsrs	r4, r4, #29
 80015d6:	7014      	strb	r4, [r2, #0]
 80015d8:	e7d1      	b.n	800157e <Can_Recieve_StdMessage+0x1e>
 80015da:	bf00      	nop

080015dc <Can_Init>:
 80015dc:	b570      	push	{r4, r5, r6, lr}
 80015de:	4c94      	ldr	r4, [pc, #592]	; (8001830 <Can_Init+0x254>)
 80015e0:	f8d4 3200 	ldr.w	r3, [r4, #512]	; 0x200
 80015e4:	b084      	sub	sp, #16
 80015e6:	f423 537c 	bic.w	r3, r3, #16128	; 0x3f00
 80015ea:	9001      	str	r0, [sp, #4]
 80015ec:	9100      	str	r1, [sp, #0]
 80015ee:	f8c4 3200 	str.w	r3, [r4, #512]	; 0x200
 80015f2:	f8d4 3200 	ldr.w	r3, [r4, #512]	; 0x200
 80015f6:	f043 0301 	orr.w	r3, r3, #1
 80015fa:	f8c4 3200 	str.w	r3, [r4, #512]	; 0x200
 80015fe:	f8d4 3200 	ldr.w	r3, [r4, #512]	; 0x200
 8001602:	f443 6360 	orr.w	r3, r3, #3584	; 0xe00
 8001606:	f8c4 3200 	str.w	r3, [r4, #512]	; 0x200
 800160a:	2500      	movs	r5, #0
 800160c:	f8d4 3204 	ldr.w	r3, [r4, #516]	; 0x204
 8001610:	f8c4 5204 	str.w	r5, [r4, #516]	; 0x204
 8001614:	f8d4 320c 	ldr.w	r3, [r4, #524]	; 0x20c
 8001618:	f8c4 520c 	str.w	r5, [r4, #524]	; 0x20c
 800161c:	f8d4 3214 	ldr.w	r3, [r4, #532]	; 0x214
 8001620:	f8c4 5214 	str.w	r5, [r4, #532]	; 0x214
 8001624:	f8d4 321c 	ldr.w	r3, [r4, #540]	; 0x21c
 8001628:	f8c4 521c 	str.w	r5, [r4, #540]	; 0x21c
 800162c:	f8d4 3240 	ldr.w	r3, [r4, #576]	; 0x240
 8001630:	f8c4 5240 	str.w	r5, [r4, #576]	; 0x240
 8001634:	f8d4 3244 	ldr.w	r3, [r4, #580]	; 0x244
 8001638:	f8c4 5244 	str.w	r5, [r4, #580]	; 0x244
 800163c:	f8d4 32b0 	ldr.w	r3, [r4, #688]	; 0x2b0
 8001640:	f8c4 52b0 	str.w	r5, [r4, #688]	; 0x2b0
 8001644:	f8d4 32b4 	ldr.w	r3, [r4, #692]	; 0x2b4
 8001648:	f8c4 52b4 	str.w	r5, [r4, #692]	; 0x2b4
 800164c:	f8d4 320c 	ldr.w	r3, [r4, #524]	; 0x20c
 8001650:	f043 0301 	orr.w	r3, r3, #1
 8001654:	f8c4 320c 	str.w	r3, [r4, #524]	; 0x20c
 8001658:	f8d4 320c 	ldr.w	r3, [r4, #524]	; 0x20c
 800165c:	f443 4380 	orr.w	r3, r3, #16384	; 0x4000
 8001660:	f8c4 320c 	str.w	r3, [r4, #524]	; 0x20c
 8001664:	f8d4 3214 	ldr.w	r3, [r4, #532]	; 0x214
 8001668:	f8c4 3214 	str.w	r3, [r4, #532]	; 0x214
 800166c:	f8d4 321c 	ldr.w	r3, [r4, #540]	; 0x21c
 8001670:	f043 0301 	orr.w	r3, r3, #1
 8001674:	f8c4 321c 	str.w	r3, [r4, #540]	; 0x21c
 8001678:	f8d4 321c 	ldr.w	r3, [r4, #540]	; 0x21c
 800167c:	f443 4380 	orr.w	r3, r3, #16384	; 0x4000
 8001680:	f8c4 321c 	str.w	r3, [r4, #540]	; 0x21c
 8001684:	f8d4 3240 	ldr.w	r3, [r4, #576]	; 0x240
 8001688:	f8c4 3240 	str.w	r3, [r4, #576]	; 0x240
 800168c:	f8d4 3244 	ldr.w	r3, [r4, #580]	; 0x244
 8001690:	f8c4 3244 	str.w	r3, [r4, #580]	; 0x244
 8001694:	f8d4 3200 	ldr.w	r3, [r4, #512]	; 0x200
 8001698:	f023 0301 	bic.w	r3, r3, #1
 800169c:	f8c4 3200 	str.w	r3, [r4, #512]	; 0x200
 80016a0:	f7ff fe66 	bl	8001370 <can_buffer_init>
 80016a4:	6963      	ldr	r3, [r4, #20]
 80016a6:	4a63      	ldr	r2, [pc, #396]	; (8001834 <Can_Init+0x258>)
 80016a8:	f443 4300 	orr.w	r3, r3, #32768	; 0x8000
 80016ac:	6163      	str	r3, [r4, #20]
 80016ae:	6963      	ldr	r3, [r4, #20]
 80016b0:	f043 0301 	orr.w	r3, r3, #1
 80016b4:	6163      	str	r3, [r4, #20]
 80016b6:	6963      	ldr	r3, [r4, #20]
 80016b8:	f44f 2100 	mov.w	r1, #524288	; 0x80000
 80016bc:	f443 6300 	orr.w	r3, r3, #2048	; 0x800
 80016c0:	6163      	str	r3, [r4, #20]
 80016c2:	2080      	movs	r0, #128	; 0x80
 80016c4:	6011      	str	r1, [r2, #0]
 80016c6:	4b5c      	ldr	r3, [pc, #368]	; (8001838 <Can_Init+0x25c>)
 80016c8:	2690      	movs	r6, #144	; 0x90
 80016ca:	f44f 0180 	mov.w	r1, #4194304	; 0x400000
 80016ce:	f882 6313 	strb.w	r6, [r2, #787]	; 0x313
 80016d2:	6011      	str	r1, [r2, #0]
 80016d4:	f882 0316 	strb.w	r0, [r2, #790]	; 0x316
 80016d8:	6959      	ldr	r1, [r3, #20]
 80016da:	f441 4100 	orr.w	r1, r1, #32768	; 0x8000
 80016de:	6159      	str	r1, [r3, #20]
 80016e0:	6959      	ldr	r1, [r3, #20]
 80016e2:	f041 0101 	orr.w	r1, r1, #1
 80016e6:	6159      	str	r1, [r3, #20]
 80016e8:	6959      	ldr	r1, [r3, #20]
 80016ea:	f441 6100 	orr.w	r1, r1, #2048	; 0x800
 80016ee:	6159      	str	r1, [r3, #20]
 80016f0:	f04f 4100 	mov.w	r1, #2147483648	; 0x80000000
 80016f4:	f503 33ce 	add.w	r3, r3, #105472	; 0x19c00
 80016f8:	6051      	str	r1, [r2, #4]
 80016fa:	2104      	movs	r1, #4
 80016fc:	f882 633f 	strb.w	r6, [r2, #831]	; 0x33f
 8001700:	6091      	str	r1, [r2, #8]
 8001702:	f882 0342 	strb.w	r0, [r2, #834]	; 0x342
 8001706:	9503      	str	r5, [sp, #12]
 8001708:	681a      	ldr	r2, [r3, #0]
 800170a:	f89d 1004 	ldrb.w	r1, [sp, #4]
 800170e:	f89d e005 	ldrb.w	lr, [sp, #5]
 8001712:	f89d c006 	ldrb.w	ip, [sp, #6]
 8001716:	f89d 0007 	ldrb.w	r0, [sp, #7]
 800171a:	f422 3240 	bic.w	r2, r2, #196608	; 0x30000
 800171e:	601a      	str	r2, [r3, #0]
 8001720:	689a      	ldr	r2, [r3, #8]
 8001722:	f422 3240 	bic.w	r2, r2, #196608	; 0x30000
 8001726:	609a      	str	r2, [r3, #8]
 8001728:	68da      	ldr	r2, [r3, #12]
 800172a:	f422 3240 	bic.w	r2, r2, #196608	; 0x30000
 800172e:	60da      	str	r2, [r3, #12]
 8001730:	681a      	ldr	r2, [r3, #0]
 8001732:	f442 3200 	orr.w	r2, r2, #131072	; 0x20000
 8001736:	601a      	str	r2, [r3, #0]
 8001738:	689a      	ldr	r2, [r3, #8]
 800173a:	f442 3240 	orr.w	r2, r2, #196608	; 0x30000
 800173e:	609a      	str	r2, [r3, #8]
 8001740:	6a5a      	ldr	r2, [r3, #36]	; 0x24
 8001742:	f042 0201 	orr.w	r2, r2, #1
 8001746:	625a      	str	r2, [r3, #36]	; 0x24
 8001748:	6a5a      	ldr	r2, [r3, #36]	; 0x24
 800174a:	f042 0208 	orr.w	r2, r2, #8
 800174e:	625a      	str	r2, [r3, #36]	; 0x24
 8001750:	681a      	ldr	r2, [r3, #0]
 8001752:	f422 2240 	bic.w	r2, r2, #786432	; 0xc0000
 8001756:	601a      	str	r2, [r3, #0]
 8001758:	689a      	ldr	r2, [r3, #8]
 800175a:	f422 2240 	bic.w	r2, r2, #786432	; 0xc0000
 800175e:	609a      	str	r2, [r3, #8]
 8001760:	68da      	ldr	r2, [r3, #12]
 8001762:	f422 2240 	bic.w	r2, r2, #786432	; 0xc0000
 8001766:	60da      	str	r2, [r3, #12]
 8001768:	681a      	ldr	r2, [r3, #0]
 800176a:	f442 2200 	orr.w	r2, r2, #524288	; 0x80000
 800176e:	601a      	str	r2, [r3, #0]
 8001770:	689a      	ldr	r2, [r3, #8]
 8001772:	f442 2240 	orr.w	r2, r2, #786432	; 0xc0000
 8001776:	609a      	str	r2, [r3, #8]
 8001778:	6a5a      	ldr	r2, [r3, #36]	; 0x24
 800177a:	f042 0210 	orr.w	r2, r2, #16
 800177e:	625a      	str	r2, [r3, #36]	; 0x24
 8001780:	6a5a      	ldr	r2, [r3, #36]	; 0x24
 8001782:	f042 0280 	orr.w	r2, r2, #128	; 0x80
 8001786:	625a      	str	r2, [r3, #36]	; 0x24
 8001788:	4a2c      	ldr	r2, [pc, #176]	; (800183c <Can_Init+0x260>)
 800178a:	6c13      	ldr	r3, [r2, #64]	; 0x40
 800178c:	f043 7300 	orr.w	r3, r3, #33554432	; 0x2000000
 8001790:	6413      	str	r3, [r2, #64]	; 0x40
 8001792:	6823      	ldr	r3, [r4, #0]
 8001794:	f043 0301 	orr.w	r3, r3, #1
 8001798:	6023      	str	r3, [r4, #0]
 800179a:	6823      	ldr	r3, [r4, #0]
 800179c:	f023 0302 	bic.w	r3, r3, #2
 80017a0:	6023      	str	r3, [r4, #0]
 80017a2:	9503      	str	r5, [sp, #12]
 80017a4:	6863      	ldr	r3, [r4, #4]
 80017a6:	07db      	lsls	r3, r3, #31
 80017a8:	d40b      	bmi.n	80017c2 <Can_Init+0x1e6>
 80017aa:	f640 72fe 	movw	r2, #4094	; 0xffe
 80017ae:	e005      	b.n	80017bc <Can_Init+0x1e0>
 80017b0:	9b03      	ldr	r3, [sp, #12]
 80017b2:	3301      	adds	r3, #1
 80017b4:	9303      	str	r3, [sp, #12]
 80017b6:	6863      	ldr	r3, [r4, #4]
 80017b8:	07dd      	lsls	r5, r3, #31
 80017ba:	d402      	bmi.n	80017c2 <Can_Init+0x1e6>
 80017bc:	9b03      	ldr	r3, [sp, #12]
 80017be:	4293      	cmp	r3, r2
 80017c0:	d9f6      	bls.n	80017b0 <Can_Init+0x1d4>
 80017c2:	4b1b      	ldr	r3, [pc, #108]	; (8001830 <Can_Init+0x254>)
 80017c4:	685a      	ldr	r2, [r3, #4]
 80017c6:	07d6      	lsls	r6, r2, #31
 80017c8:	d54b      	bpl.n	8001862 <Can_Init+0x286>
 80017ca:	69da      	ldr	r2, [r3, #28]
 80017cc:	f422 2270 	bic.w	r2, r2, #983040	; 0xf0000
 80017d0:	61da      	str	r2, [r3, #28]
 80017d2:	69da      	ldr	r2, [r3, #28]
 80017d4:	f422 02e0 	bic.w	r2, r2, #7340032	; 0x700000
 80017d8:	61da      	str	r2, [r3, #28]
 80017da:	69da      	ldr	r2, [r3, #28]
 80017dc:	f022 7240 	bic.w	r2, r2, #50331648	; 0x3000000
 80017e0:	61da      	str	r2, [r3, #28]
 80017e2:	69da      	ldr	r2, [r3, #28]
 80017e4:	4311      	orrs	r1, r2
 80017e6:	61d9      	str	r1, [r3, #28]
 80017e8:	69da      	ldr	r2, [r3, #28]
 80017ea:	ea42 420e 	orr.w	r2, r2, lr, lsl #16
 80017ee:	61da      	str	r2, [r3, #28]
 80017f0:	69da      	ldr	r2, [r3, #28]
 80017f2:	ea42 520c 	orr.w	r2, r2, ip, lsl #20
 80017f6:	61da      	str	r2, [r3, #28]
 80017f8:	69da      	ldr	r2, [r3, #28]
 80017fa:	ea42 6000 	orr.w	r0, r2, r0, lsl #24
 80017fe:	61d8      	str	r0, [r3, #28]
 8001800:	695a      	ldr	r2, [r3, #20]
 8001802:	f042 0202 	orr.w	r2, r2, #2
 8001806:	615a      	str	r2, [r3, #20]
 8001808:	681a      	ldr	r2, [r3, #0]
 800180a:	f042 0240 	orr.w	r2, r2, #64	; 0x40
 800180e:	601a      	str	r2, [r3, #0]
 8001810:	681a      	ldr	r2, [r3, #0]
 8001812:	f042 0210 	orr.w	r2, r2, #16
 8001816:	601a      	str	r2, [r3, #0]
 8001818:	681a      	ldr	r2, [r3, #0]
 800181a:	2100      	movs	r1, #0
 800181c:	f022 0201 	bic.w	r2, r2, #1
 8001820:	601a      	str	r2, [r3, #0]
 8001822:	9103      	str	r1, [sp, #12]
 8001824:	685a      	ldr	r2, [r3, #4]
 8001826:	07d0      	lsls	r0, r2, #31
 8001828:	d513      	bpl.n	8001852 <Can_Init+0x276>
 800182a:	f640 71fe 	movw	r1, #4094	; 0xffe
 800182e:	e00d      	b.n	800184c <Can_Init+0x270>
 8001830:	40006400 	.word	0x40006400
 8001834:	e000e100 	.word	0xe000e100
 8001838:	40006800 	.word	0x40006800
 800183c:	40023800 	.word	0x40023800
 8001840:	9a03      	ldr	r2, [sp, #12]
 8001842:	3201      	adds	r2, #1
 8001844:	9203      	str	r2, [sp, #12]
 8001846:	685a      	ldr	r2, [r3, #4]
 8001848:	07d2      	lsls	r2, r2, #31
 800184a:	d502      	bpl.n	8001852 <Can_Init+0x276>
 800184c:	9a03      	ldr	r2, [sp, #12]
 800184e:	428a      	cmp	r2, r1
 8001850:	d9f6      	bls.n	8001840 <Can_Init+0x264>
 8001852:	4b68      	ldr	r3, [pc, #416]	; (80019f4 <Can_Init+0x418>)
 8001854:	685a      	ldr	r2, [r3, #4]
 8001856:	07d1      	lsls	r1, r2, #31
 8001858:	d403      	bmi.n	8001862 <Can_Init+0x286>
 800185a:	685c      	ldr	r4, [r3, #4]
 800185c:	f014 0402 	ands.w	r4, r4, #2
 8001860:	d000      	beq.n	8001864 <Can_Init+0x288>
 8001862:	2401      	movs	r4, #1
 8001864:	4b64      	ldr	r3, [pc, #400]	; (80019f8 <Can_Init+0x41c>)
 8001866:	f89d 0000 	ldrb.w	r0, [sp]
 800186a:	f89d e001 	ldrb.w	lr, [sp, #1]
 800186e:	f89d c002 	ldrb.w	ip, [sp, #2]
 8001872:	f89d 5003 	ldrb.w	r5, [sp, #3]
 8001876:	4e61      	ldr	r6, [pc, #388]	; (80019fc <Can_Init+0x420>)
 8001878:	2100      	movs	r1, #0
 800187a:	9102      	str	r1, [sp, #8]
 800187c:	681a      	ldr	r2, [r3, #0]
 800187e:	f022 7240 	bic.w	r2, r2, #50331648	; 0x3000000
 8001882:	601a      	str	r2, [r3, #0]
 8001884:	689a      	ldr	r2, [r3, #8]
 8001886:	f022 7240 	bic.w	r2, r2, #50331648	; 0x3000000
 800188a:	609a      	str	r2, [r3, #8]
 800188c:	68da      	ldr	r2, [r3, #12]
 800188e:	f022 7240 	bic.w	r2, r2, #50331648	; 0x3000000
 8001892:	60da      	str	r2, [r3, #12]
 8001894:	681a      	ldr	r2, [r3, #0]
 8001896:	f042 7200 	orr.w	r2, r2, #33554432	; 0x2000000
 800189a:	601a      	str	r2, [r3, #0]
 800189c:	689a      	ldr	r2, [r3, #8]
 800189e:	f042 7240 	orr.w	r2, r2, #50331648	; 0x3000000
 80018a2:	609a      	str	r2, [r3, #8]
 80018a4:	6a5a      	ldr	r2, [r3, #36]	; 0x24
 80018a6:	f442 3280 	orr.w	r2, r2, #65536	; 0x10000
 80018aa:	625a      	str	r2, [r3, #36]	; 0x24
 80018ac:	6a5a      	ldr	r2, [r3, #36]	; 0x24
 80018ae:	f442 2200 	orr.w	r2, r2, #524288	; 0x80000
 80018b2:	625a      	str	r2, [r3, #36]	; 0x24
 80018b4:	681a      	ldr	r2, [r3, #0]
 80018b6:	f022 6240 	bic.w	r2, r2, #201326592	; 0xc000000
 80018ba:	601a      	str	r2, [r3, #0]
 80018bc:	689a      	ldr	r2, [r3, #8]
 80018be:	f022 6240 	bic.w	r2, r2, #201326592	; 0xc000000
 80018c2:	609a      	str	r2, [r3, #8]
 80018c4:	68da      	ldr	r2, [r3, #12]
 80018c6:	f022 6240 	bic.w	r2, r2, #201326592	; 0xc000000
 80018ca:	60da      	str	r2, [r3, #12]
 80018cc:	681a      	ldr	r2, [r3, #0]
 80018ce:	f042 6200 	orr.w	r2, r2, #134217728	; 0x8000000
 80018d2:	601a      	str	r2, [r3, #0]
 80018d4:	689a      	ldr	r2, [r3, #8]
 80018d6:	f442 5240 	orr.w	r2, r2, #12288	; 0x3000
 80018da:	609a      	str	r2, [r3, #8]
 80018dc:	6a5a      	ldr	r2, [r3, #36]	; 0x24
 80018de:	f442 1280 	orr.w	r2, r2, #1048576	; 0x100000
 80018e2:	625a      	str	r2, [r3, #36]	; 0x24
 80018e4:	6a5a      	ldr	r2, [r3, #36]	; 0x24
 80018e6:	f442 0200 	orr.w	r2, r2, #8388608	; 0x800000
 80018ea:	625a      	str	r2, [r3, #36]	; 0x24
 80018ec:	6c33      	ldr	r3, [r6, #64]	; 0x40
 80018ee:	4a41      	ldr	r2, [pc, #260]	; (80019f4 <Can_Init+0x418>)
 80018f0:	f043 6380 	orr.w	r3, r3, #67108864	; 0x4000000
 80018f4:	6433      	str	r3, [r6, #64]	; 0x40
 80018f6:	6813      	ldr	r3, [r2, #0]
 80018f8:	f043 0301 	orr.w	r3, r3, #1
 80018fc:	6013      	str	r3, [r2, #0]
 80018fe:	f8d2 3400 	ldr.w	r3, [r2, #1024]	; 0x400
 8001902:	f043 0301 	orr.w	r3, r3, #1
 8001906:	f8c2 3400 	str.w	r3, [r2, #1024]	; 0x400
 800190a:	f8d2 3400 	ldr.w	r3, [r2, #1024]	; 0x400
 800190e:	f023 0302 	bic.w	r3, r3, #2
 8001912:	f8c2 3400 	str.w	r3, [r2, #1024]	; 0x400
 8001916:	9102      	str	r1, [sp, #8]
 8001918:	f8d2 3404 	ldr.w	r3, [r2, #1028]	; 0x404
 800191c:	07db      	lsls	r3, r3, #31
 800191e:	f502 6280 	add.w	r2, r2, #1024	; 0x400
 8001922:	d40b      	bmi.n	800193c <Can_Init+0x360>
 8001924:	f640 71fe 	movw	r1, #4094	; 0xffe
 8001928:	e005      	b.n	8001936 <Can_Init+0x35a>
 800192a:	9b02      	ldr	r3, [sp, #8]
 800192c:	3301      	adds	r3, #1
 800192e:	9302      	str	r3, [sp, #8]
 8001930:	6853      	ldr	r3, [r2, #4]
 8001932:	07de      	lsls	r6, r3, #31
 8001934:	d402      	bmi.n	800193c <Can_Init+0x360>
 8001936:	9b02      	ldr	r3, [sp, #8]
 8001938:	428b      	cmp	r3, r1
 800193a:	d9f6      	bls.n	800192a <Can_Init+0x34e>
 800193c:	4b30      	ldr	r3, [pc, #192]	; (8001a00 <Can_Init+0x424>)
 800193e:	685e      	ldr	r6, [r3, #4]
 8001940:	f016 0601 	ands.w	r6, r6, #1
 8001944:	d04f      	beq.n	80019e6 <Can_Init+0x40a>
 8001946:	69da      	ldr	r2, [r3, #28]
 8001948:	492a      	ldr	r1, [pc, #168]	; (80019f4 <Can_Init+0x418>)
 800194a:	f422 2270 	bic.w	r2, r2, #983040	; 0xf0000
 800194e:	61da      	str	r2, [r3, #28]
 8001950:	69da      	ldr	r2, [r3, #28]
 8001952:	f422 02e0 	bic.w	r2, r2, #7340032	; 0x700000
 8001956:	61da      	str	r2, [r3, #28]
 8001958:	69da      	ldr	r2, [r3, #28]
 800195a:	f022 7240 	bic.w	r2, r2, #50331648	; 0x3000000
 800195e:	61da      	str	r2, [r3, #28]
 8001960:	69da      	ldr	r2, [r3, #28]
 8001962:	4310      	orrs	r0, r2
 8001964:	61d8      	str	r0, [r3, #28]
 8001966:	69da      	ldr	r2, [r3, #28]
 8001968:	ea42 420e 	orr.w	r2, r2, lr, lsl #16
 800196c:	61da      	str	r2, [r3, #28]
 800196e:	69da      	ldr	r2, [r3, #28]
 8001970:	ea42 520c 	orr.w	r2, r2, ip, lsl #20
 8001974:	61da      	str	r2, [r3, #28]
 8001976:	69da      	ldr	r2, [r3, #28]
 8001978:	ea42 6505 	orr.w	r5, r2, r5, lsl #24
 800197c:	61dd      	str	r5, [r3, #28]
 800197e:	695a      	ldr	r2, [r3, #20]
 8001980:	f042 0202 	orr.w	r2, r2, #2
 8001984:	615a      	str	r2, [r3, #20]
 8001986:	681a      	ldr	r2, [r3, #0]
 8001988:	f042 0240 	orr.w	r2, r2, #64	; 0x40
 800198c:	601a      	str	r2, [r3, #0]
 800198e:	681a      	ldr	r2, [r3, #0]
 8001990:	f042 0210 	orr.w	r2, r2, #16
 8001994:	601a      	str	r2, [r3, #0]
 8001996:	681a      	ldr	r2, [r3, #0]
 8001998:	f022 0201 	bic.w	r2, r2, #1
 800199c:	601a      	str	r2, [r3, #0]
 800199e:	680a      	ldr	r2, [r1, #0]
 80019a0:	f022 0201 	bic.w	r2, r2, #1
 80019a4:	600a      	str	r2, [r1, #0]
 80019a6:	2200      	movs	r2, #0
 80019a8:	9202      	str	r2, [sp, #8]
 80019aa:	685a      	ldr	r2, [r3, #4]
 80019ac:	07d5      	lsls	r5, r2, #31
 80019ae:	d50b      	bpl.n	80019c8 <Can_Init+0x3ec>
 80019b0:	f640 71fe 	movw	r1, #4094	; 0xffe
 80019b4:	e005      	b.n	80019c2 <Can_Init+0x3e6>
 80019b6:	9a02      	ldr	r2, [sp, #8]
 80019b8:	3201      	adds	r2, #1
 80019ba:	9202      	str	r2, [sp, #8]
 80019bc:	685a      	ldr	r2, [r3, #4]
 80019be:	07d0      	lsls	r0, r2, #31
 80019c0:	d502      	bpl.n	80019c8 <Can_Init+0x3ec>
 80019c2:	9a02      	ldr	r2, [sp, #8]
 80019c4:	428a      	cmp	r2, r1
 80019c6:	d9f6      	bls.n	80019b6 <Can_Init+0x3da>
 80019c8:	4b0d      	ldr	r3, [pc, #52]	; (8001a00 <Can_Init+0x424>)
 80019ca:	6858      	ldr	r0, [r3, #4]
 80019cc:	f010 0001 	ands.w	r0, r0, #1
 80019d0:	d107      	bne.n	80019e2 <Can_Init+0x406>
 80019d2:	685a      	ldr	r2, [r3, #4]
 80019d4:	0792      	lsls	r2, r2, #30
 80019d6:	d409      	bmi.n	80019ec <Can_Init+0x410>
 80019d8:	691a      	ldr	r2, [r3, #16]
 80019da:	f042 0220 	orr.w	r2, r2, #32
 80019de:	4620      	mov	r0, r4
 80019e0:	611a      	str	r2, [r3, #16]
 80019e2:	b004      	add	sp, #16
 80019e4:	bd70      	pop	{r4, r5, r6, pc}
 80019e6:	2001      	movs	r0, #1
 80019e8:	b004      	add	sp, #16
 80019ea:	bd70      	pop	{r4, r5, r6, pc}
 80019ec:	4630      	mov	r0, r6
 80019ee:	b004      	add	sp, #16
 80019f0:	bd70      	pop	{r4, r5, r6, pc}
 80019f2:	bf00      	nop
 80019f4:	40006400 	.word	0x40006400
 80019f8:	40020400 	.word	0x40020400
 80019fc:	40023800 	.word	0x40023800
 8001a00:	40006800 	.word	0x40006800

08001a04 <process_buffered_can_tx>:
 8001a04:	e92d 4ff0 	stmdb	sp!, {r4, r5, r6, r7, r8, r9, sl, fp, lr}
 8001a08:	4c27      	ldr	r4, [pc, #156]	; (8001aa8 <process_buffered_can_tx+0xa4>)
 8001a0a:	2600      	movs	r6, #0
 8001a0c:	b083      	sub	sp, #12
 8001a0e:	4637      	mov	r7, r6
 8001a10:	46b1      	mov	r9, r6
 8001a12:	f5a4 4a80 	sub.w	sl, r4, #16384	; 0x4000
 8001a16:	f244 0850 	movw	r8, #16464	; 0x4050
 8001a1a:	f244 0b48 	movw	fp, #16456	; 0x4048
 8001a1e:	6ce3      	ldr	r3, [r4, #76]	; 0x4c
 8001a20:	4798      	blx	r3
 8001a22:	f5b0 6f80 	cmp.w	r0, #1024	; 0x400
 8001a26:	fb08 a307 	mla	r3, r8, r7, sl
 8001a2a:	d022      	beq.n	8001a72 <process_buffered_can_tx+0x6e>
 8001a2c:	f8d4 c000 	ldr.w	ip, [r4]
 8001a30:	f8dc 2008 	ldr.w	r2, [ip, #8]
 8001a34:	f012 5fe0 	tst.w	r2, #469762048	; 0x1c000000
 8001a38:	d01b      	beq.n	8001a72 <process_buffered_can_tx+0x6e>
 8001a3a:	f8dc 5008 	ldr.w	r5, [ip, #8]
 8001a3e:	f3c5 6501 	ubfx	r5, r5, #24, #2
 8001a42:	442b      	add	r3, r5
 8001a44:	b2e9      	uxtb	r1, r5
 8001a46:	f813 200b 	ldrb.w	r2, [r3, fp]
 8001a4a:	9101      	str	r1, [sp, #4]
 8001a4c:	f04f 0e01 	mov.w	lr, #1
 8001a50:	4608      	mov	r0, r1
 8001a52:	b9c2      	cbnz	r2, 8001a86 <process_buffered_can_tx+0x82>
 8001a54:	f803 e00b 	strb.w	lr, [r3, fp]
 8001a58:	6963      	ldr	r3, [r4, #20]
 8001a5a:	44f1      	add	r9, lr
 8001a5c:	4798      	blx	r3
 8001a5e:	19aa      	adds	r2, r5, r6
 8001a60:	eb0a 1202 	add.w	r2, sl, r2, lsl #4
 8001a64:	f502 4280 	add.w	r2, r2, #16384	; 0x4000
 8001a68:	9901      	ldr	r1, [sp, #4]
 8001a6a:	6820      	ldr	r0, [r4, #0]
 8001a6c:	3218      	adds	r2, #24
 8001a6e:	f7ff fcb9 	bl	80013e4 <Can_Transmit_BufferedMessage>
 8001a72:	4444      	add	r4, r8
 8001a74:	f206 4605 	addw	r6, r6, #1029	; 0x405
 8001a78:	b11f      	cbz	r7, 8001a82 <process_buffered_can_tx+0x7e>
 8001a7a:	4648      	mov	r0, r9
 8001a7c:	b003      	add	sp, #12
 8001a7e:	e8bd 8ff0 	ldmia.w	sp!, {r4, r5, r6, r7, r8, r9, sl, fp, pc}
 8001a82:	2701      	movs	r7, #1
 8001a84:	e7cb      	b.n	8001a1e <process_buffered_can_tx+0x1a>
 8001a86:	19aa      	adds	r2, r5, r6
 8001a88:	eb0a 1202 	add.w	r2, sl, r2, lsl #4
 8001a8c:	4629      	mov	r1, r5
 8001a8e:	f502 4280 	add.w	r2, r2, #16384	; 0x4000
 8001a92:	2502      	movs	r5, #2
 8001a94:	f803 500b 	strb.w	r5, [r3, fp]
 8001a98:	4660      	mov	r0, ip
 8001a9a:	3218      	adds	r2, #24
 8001a9c:	f109 0901 	add.w	r9, r9, #1
 8001aa0:	f7ff fca0 	bl	80013e4 <Can_Transmit_BufferedMessage>
 8001aa4:	e7e5      	b.n	8001a72 <process_buffered_can_tx+0x6e>
 8001aa6:	bf00      	nop
 8001aa8:	200040e0 	.word	0x200040e0

08001aac <CAN1_TX_IRQHandler>:
 8001aac:	b538      	push	{r3, r4, r5, lr}
 8001aae:	4c66      	ldr	r4, [pc, #408]	; (8001c48 <CAN1_TX_IRQHandler+0x19c>)
 8001ab0:	68a1      	ldr	r1, [r4, #8]
 8001ab2:	f04f 0300 	mov.w	r3, #0
 8001ab6:	f361 0300 	bfi	r3, r1, #0, #1
 8001aba:	f013 0201 	ands.w	r2, r3, #1
 8001abe:	f000 808e 	beq.w	8001bde <CAN1_TX_IRQHandler+0x132>
 8001ac2:	68a2      	ldr	r2, [r4, #8]
 8001ac4:	68a0      	ldr	r0, [r4, #8]
 8001ac6:	68a5      	ldr	r5, [r4, #8]
 8001ac8:	f3c2 0480 	ubfx	r4, r2, #2, #1
 8001acc:	f3c5 0240 	ubfx	r2, r5, #1, #1
 8001ad0:	f362 0341 	bfi	r3, r2, #1, #1
 8001ad4:	f3c0 00c0 	ubfx	r0, r0, #3, #1
 8001ad8:	f364 0382 	bfi	r3, r4, #2, #1
 8001adc:	f360 03c3 	bfi	r3, r0, #3, #1
 8001ae0:	f001 0101 	and.w	r1, r1, #1
 8001ae4:	ea41 0242 	orr.w	r2, r1, r2, lsl #1
 8001ae8:	ea42 0284 	orr.w	r2, r2, r4, lsl #2
 8001aec:	ea42 02c0 	orr.w	r2, r2, r0, lsl #3
 8001af0:	f003 03f0 	and.w	r3, r3, #240	; 0xf0
 8001af4:	07d4      	lsls	r4, r2, #31
 8001af6:	ea43 0302 	orr.w	r3, r3, r2
 8001afa:	d50c      	bpl.n	8001b16 <CAN1_TX_IRQHandler+0x6a>
 8001afc:	f013 0102 	ands.w	r1, r3, #2
 8001b00:	f000 8094 	beq.w	8001c2c <CAN1_TX_IRQHandler+0x180>
 8001b04:	4a50      	ldr	r2, [pc, #320]	; (8001c48 <CAN1_TX_IRQHandler+0x19c>)
 8001b06:	4951      	ldr	r1, [pc, #324]	; (8001c4c <CAN1_TX_IRQHandler+0x1a0>)
 8001b08:	6893      	ldr	r3, [r2, #8]
 8001b0a:	2000      	movs	r0, #0
 8001b0c:	f043 0301 	orr.w	r3, r3, #1
 8001b10:	6093      	str	r3, [r2, #8]
 8001b12:	f881 0048 	strb.w	r0, [r1, #72]	; 0x48
 8001b16:	4c4c      	ldr	r4, [pc, #304]	; (8001c48 <CAN1_TX_IRQHandler+0x19c>)
 8001b18:	68a1      	ldr	r1, [r4, #8]
 8001b1a:	f04f 0300 	mov.w	r3, #0
 8001b1e:	0a09      	lsrs	r1, r1, #8
 8001b20:	f361 0300 	bfi	r3, r1, #0, #1
 8001b24:	f013 0201 	ands.w	r2, r3, #1
 8001b28:	d05f      	beq.n	8001bea <CAN1_TX_IRQHandler+0x13e>
 8001b2a:	68a2      	ldr	r2, [r4, #8]
 8001b2c:	68a0      	ldr	r0, [r4, #8]
 8001b2e:	68a5      	ldr	r5, [r4, #8]
 8001b30:	f3c2 2480 	ubfx	r4, r2, #10, #1
 8001b34:	f3c5 2240 	ubfx	r2, r5, #9, #1
 8001b38:	f362 0341 	bfi	r3, r2, #1, #1
 8001b3c:	f3c0 20c0 	ubfx	r0, r0, #11, #1
 8001b40:	f364 0382 	bfi	r3, r4, #2, #1
 8001b44:	f360 03c3 	bfi	r3, r0, #3, #1
 8001b48:	f001 0101 	and.w	r1, r1, #1
 8001b4c:	ea41 0242 	orr.w	r2, r1, r2, lsl #1
 8001b50:	ea42 0284 	orr.w	r2, r2, r4, lsl #2
 8001b54:	ea42 02c0 	orr.w	r2, r2, r0, lsl #3
 8001b58:	f003 03f0 	and.w	r3, r3, #240	; 0xf0
 8001b5c:	07d0      	lsls	r0, r2, #31
 8001b5e:	ea43 0302 	orr.w	r3, r3, r2
 8001b62:	d50a      	bpl.n	8001b7a <CAN1_TX_IRQHandler+0xce>
 8001b64:	0799      	lsls	r1, r3, #30
 8001b66:	d543      	bpl.n	8001bf0 <CAN1_TX_IRQHandler+0x144>
 8001b68:	4a37      	ldr	r2, [pc, #220]	; (8001c48 <CAN1_TX_IRQHandler+0x19c>)
 8001b6a:	4938      	ldr	r1, [pc, #224]	; (8001c4c <CAN1_TX_IRQHandler+0x1a0>)
 8001b6c:	6893      	ldr	r3, [r2, #8]
 8001b6e:	2000      	movs	r0, #0
 8001b70:	f443 7380 	orr.w	r3, r3, #256	; 0x100
 8001b74:	6093      	str	r3, [r2, #8]
 8001b76:	f881 0049 	strb.w	r0, [r1, #73]	; 0x49
 8001b7a:	4c33      	ldr	r4, [pc, #204]	; (8001c48 <CAN1_TX_IRQHandler+0x19c>)
 8001b7c:	68a1      	ldr	r1, [r4, #8]
 8001b7e:	f04f 0300 	mov.w	r3, #0
 8001b82:	0c09      	lsrs	r1, r1, #16
 8001b84:	f361 0300 	bfi	r3, r1, #0, #1
 8001b88:	f013 0201 	ands.w	r2, r3, #1
 8001b8c:	d02a      	beq.n	8001be4 <CAN1_TX_IRQHandler+0x138>
 8001b8e:	68a2      	ldr	r2, [r4, #8]
 8001b90:	68a0      	ldr	r0, [r4, #8]
 8001b92:	68a4      	ldr	r4, [r4, #8]
 8001b94:	f3c2 4c80 	ubfx	ip, r2, #18, #1
 8001b98:	f3c4 4240 	ubfx	r2, r4, #17, #1
 8001b9c:	f362 0341 	bfi	r3, r2, #1, #1
 8001ba0:	f3c0 40c0 	ubfx	r0, r0, #19, #1
 8001ba4:	f36c 0382 	bfi	r3, ip, #2, #1
 8001ba8:	f360 03c3 	bfi	r3, r0, #3, #1
 8001bac:	f001 0101 	and.w	r1, r1, #1
 8001bb0:	ea41 0242 	orr.w	r2, r1, r2, lsl #1
 8001bb4:	ea42 028c 	orr.w	r2, r2, ip, lsl #2
 8001bb8:	ea42 02c0 	orr.w	r2, r2, r0, lsl #3
 8001bbc:	f003 03f0 	and.w	r3, r3, #240	; 0xf0
 8001bc0:	4313      	orrs	r3, r2
 8001bc2:	07d2      	lsls	r2, r2, #31
 8001bc4:	d50a      	bpl.n	8001bdc <CAN1_TX_IRQHandler+0x130>
 8001bc6:	079b      	lsls	r3, r3, #30
 8001bc8:	d521      	bpl.n	8001c0e <CAN1_TX_IRQHandler+0x162>
 8001bca:	4a1f      	ldr	r2, [pc, #124]	; (8001c48 <CAN1_TX_IRQHandler+0x19c>)
 8001bcc:	491f      	ldr	r1, [pc, #124]	; (8001c4c <CAN1_TX_IRQHandler+0x1a0>)
 8001bce:	6893      	ldr	r3, [r2, #8]
 8001bd0:	2000      	movs	r0, #0
 8001bd2:	f443 3380 	orr.w	r3, r3, #65536	; 0x10000
 8001bd6:	6093      	str	r3, [r2, #8]
 8001bd8:	f881 004a 	strb.w	r0, [r1, #74]	; 0x4a
 8001bdc:	bd38      	pop	{r3, r4, r5, pc}
 8001bde:	4610      	mov	r0, r2
 8001be0:	4614      	mov	r4, r2
 8001be2:	e77d      	b.n	8001ae0 <CAN1_TX_IRQHandler+0x34>
 8001be4:	4610      	mov	r0, r2
 8001be6:	4694      	mov	ip, r2
 8001be8:	e7e0      	b.n	8001bac <CAN1_TX_IRQHandler+0x100>
 8001bea:	4610      	mov	r0, r2
 8001bec:	4614      	mov	r4, r2
 8001bee:	e7ab      	b.n	8001b48 <CAN1_TX_IRQHandler+0x9c>
 8001bf0:	4915      	ldr	r1, [pc, #84]	; (8001c48 <CAN1_TX_IRQHandler+0x19c>)
 8001bf2:	4a16      	ldr	r2, [pc, #88]	; (8001c4c <CAN1_TX_IRQHandler+0x1a0>)
 8001bf4:	688b      	ldr	r3, [r1, #8]
 8001bf6:	2002      	movs	r0, #2
 8001bf8:	f443 7380 	orr.w	r3, r3, #256	; 0x100
 8001bfc:	608b      	str	r3, [r1, #8]
 8001bfe:	f882 0049 	strb.w	r0, [r2, #73]	; 0x49
 8001c02:	2101      	movs	r1, #1
 8001c04:	f852 0b28 	ldr.w	r0, [r2], #40
 8001c08:	f7ff fbec 	bl	80013e4 <Can_Transmit_BufferedMessage>
 8001c0c:	e7b5      	b.n	8001b7a <CAN1_TX_IRQHandler+0xce>
 8001c0e:	480e      	ldr	r0, [pc, #56]	; (8001c48 <CAN1_TX_IRQHandler+0x19c>)
 8001c10:	4a0e      	ldr	r2, [pc, #56]	; (8001c4c <CAN1_TX_IRQHandler+0x1a0>)
 8001c12:	6883      	ldr	r3, [r0, #8]
 8001c14:	2102      	movs	r1, #2
 8001c16:	f443 3380 	orr.w	r3, r3, #65536	; 0x10000
 8001c1a:	6083      	str	r3, [r0, #8]
 8001c1c:	f882 104a 	strb.w	r1, [r2, #74]	; 0x4a
 8001c20:	e8bd 4038 	ldmia.w	sp!, {r3, r4, r5, lr}
 8001c24:	f852 0b38 	ldr.w	r0, [r2], #56
 8001c28:	f7ff bbdc 	b.w	80013e4 <Can_Transmit_BufferedMessage>
 8001c2c:	4c06      	ldr	r4, [pc, #24]	; (8001c48 <CAN1_TX_IRQHandler+0x19c>)
 8001c2e:	4a07      	ldr	r2, [pc, #28]	; (8001c4c <CAN1_TX_IRQHandler+0x1a0>)
 8001c30:	68a3      	ldr	r3, [r4, #8]
 8001c32:	2002      	movs	r0, #2
 8001c34:	f043 0301 	orr.w	r3, r3, #1
 8001c38:	f882 0048 	strb.w	r0, [r2, #72]	; 0x48
 8001c3c:	f852 0b18 	ldr.w	r0, [r2], #24
 8001c40:	60a3      	str	r3, [r4, #8]
 8001c42:	f7ff fbcf 	bl	80013e4 <Can_Transmit_BufferedMessage>
 8001c46:	e766      	b.n	8001b16 <CAN1_TX_IRQHandler+0x6a>
 8001c48:	40006400 	.word	0x40006400
 8001c4c:	200040e0 	.word	0x200040e0

08001c50 <CAN2_TX_IRQHandler>:
 8001c50:	b538      	push	{r3, r4, r5, lr}
 8001c52:	4c68      	ldr	r4, [pc, #416]	; (8001df4 <CAN2_TX_IRQHandler+0x1a4>)
 8001c54:	68a1      	ldr	r1, [r4, #8]
 8001c56:	f04f 0300 	mov.w	r3, #0
 8001c5a:	f361 0300 	bfi	r3, r1, #0, #1
 8001c5e:	f013 0201 	ands.w	r2, r3, #1
 8001c62:	f000 808e 	beq.w	8001d82 <CAN2_TX_IRQHandler+0x132>
 8001c66:	68a2      	ldr	r2, [r4, #8]
 8001c68:	68a0      	ldr	r0, [r4, #8]
 8001c6a:	68a5      	ldr	r5, [r4, #8]
 8001c6c:	f3c2 0480 	ubfx	r4, r2, #2, #1
 8001c70:	f3c5 0240 	ubfx	r2, r5, #1, #1
 8001c74:	f362 0341 	bfi	r3, r2, #1, #1
 8001c78:	f3c0 00c0 	ubfx	r0, r0, #3, #1
 8001c7c:	f364 0382 	bfi	r3, r4, #2, #1
 8001c80:	f360 03c3 	bfi	r3, r0, #3, #1
 8001c84:	f001 0101 	and.w	r1, r1, #1
 8001c88:	ea41 0242 	orr.w	r2, r1, r2, lsl #1
 8001c8c:	ea42 0284 	orr.w	r2, r2, r4, lsl #2
 8001c90:	ea42 02c0 	orr.w	r2, r2, r0, lsl #3
 8001c94:	f003 03f0 	and.w	r3, r3, #240	; 0xf0
 8001c98:	07d4      	lsls	r4, r2, #31
 8001c9a:	ea43 0302 	orr.w	r3, r3, r2
 8001c9e:	d50c      	bpl.n	8001cba <CAN2_TX_IRQHandler+0x6a>
 8001ca0:	f013 0102 	ands.w	r1, r3, #2
 8001ca4:	f000 8096 	beq.w	8001dd4 <CAN2_TX_IRQHandler+0x184>
 8001ca8:	4a52      	ldr	r2, [pc, #328]	; (8001df4 <CAN2_TX_IRQHandler+0x1a4>)
 8001caa:	4953      	ldr	r1, [pc, #332]	; (8001df8 <CAN2_TX_IRQHandler+0x1a8>)
 8001cac:	6893      	ldr	r3, [r2, #8]
 8001cae:	2000      	movs	r0, #0
 8001cb0:	f043 0301 	orr.w	r3, r3, #1
 8001cb4:	6093      	str	r3, [r2, #8]
 8001cb6:	f881 0098 	strb.w	r0, [r1, #152]	; 0x98
 8001cba:	4c4e      	ldr	r4, [pc, #312]	; (8001df4 <CAN2_TX_IRQHandler+0x1a4>)
 8001cbc:	68a1      	ldr	r1, [r4, #8]
 8001cbe:	f04f 0300 	mov.w	r3, #0
 8001cc2:	0a09      	lsrs	r1, r1, #8
 8001cc4:	f361 0300 	bfi	r3, r1, #0, #1
 8001cc8:	f013 0201 	ands.w	r2, r3, #1
 8001ccc:	d05f      	beq.n	8001d8e <CAN2_TX_IRQHandler+0x13e>
 8001cce:	68a2      	ldr	r2, [r4, #8]
 8001cd0:	68a0      	ldr	r0, [r4, #8]
 8001cd2:	68a5      	ldr	r5, [r4, #8]
 8001cd4:	f3c2 2480 	ubfx	r4, r2, #10, #1
 8001cd8:	f3c5 2240 	ubfx	r2, r5, #9, #1
 8001cdc:	f362 0341 	bfi	r3, r2, #1, #1
 8001ce0:	f3c0 20c0 	ubfx	r0, r0, #11, #1
 8001ce4:	f364 0382 	bfi	r3, r4, #2, #1
 8001ce8:	f360 03c3 	bfi	r3, r0, #3, #1
 8001cec:	f001 0101 	and.w	r1, r1, #1
 8001cf0:	ea41 0242 	orr.w	r2, r1, r2, lsl #1
 8001cf4:	ea42 0284 	orr.w	r2, r2, r4, lsl #2
 8001cf8:	ea42 02c0 	orr.w	r2, r2, r0, lsl #3
 8001cfc:	f003 03f0 	and.w	r3, r3, #240	; 0xf0
 8001d00:	07d0      	lsls	r0, r2, #31
 8001d02:	ea43 0302 	orr.w	r3, r3, r2
 8001d06:	d50a      	bpl.n	8001d1e <CAN2_TX_IRQHandler+0xce>
 8001d08:	0799      	lsls	r1, r3, #30
 8001d0a:	d543      	bpl.n	8001d94 <CAN2_TX_IRQHandler+0x144>
 8001d0c:	4a39      	ldr	r2, [pc, #228]	; (8001df4 <CAN2_TX_IRQHandler+0x1a4>)
 8001d0e:	493a      	ldr	r1, [pc, #232]	; (8001df8 <CAN2_TX_IRQHandler+0x1a8>)
 8001d10:	6893      	ldr	r3, [r2, #8]
 8001d12:	2000      	movs	r0, #0
 8001d14:	f443 7380 	orr.w	r3, r3, #256	; 0x100
 8001d18:	6093      	str	r3, [r2, #8]
 8001d1a:	f881 0099 	strb.w	r0, [r1, #153]	; 0x99
 8001d1e:	4c35      	ldr	r4, [pc, #212]	; (8001df4 <CAN2_TX_IRQHandler+0x1a4>)
 8001d20:	68a1      	ldr	r1, [r4, #8]
 8001d22:	f04f 0300 	mov.w	r3, #0
 8001d26:	0c09      	lsrs	r1, r1, #16
 8001d28:	f361 0300 	bfi	r3, r1, #0, #1
 8001d2c:	f013 0201 	ands.w	r2, r3, #1
 8001d30:	d02a      	beq.n	8001d88 <CAN2_TX_IRQHandler+0x138>
 8001d32:	68a2      	ldr	r2, [r4, #8]
 8001d34:	68a0      	ldr	r0, [r4, #8]
 8001d36:	68a4      	ldr	r4, [r4, #8]
 8001d38:	f3c2 4c80 	ubfx	ip, r2, #18, #1
 8001d3c:	f3c4 4240 	ubfx	r2, r4, #17, #1
 8001d40:	f362 0341 	bfi	r3, r2, #1, #1
 8001d44:	f3c0 40c0 	ubfx	r0, r0, #19, #1
 8001d48:	f36c 0382 	bfi	r3, ip, #2, #1
 8001d4c:	f360 03c3 	bfi	r3, r0, #3, #1
 8001d50:	f001 0101 	and.w	r1, r1, #1
 8001d54:	ea41 0242 	orr.w	r2, r1, r2, lsl #1
 8001d58:	ea42 028c 	orr.w	r2, r2, ip, lsl #2
 8001d5c:	ea42 02c0 	orr.w	r2, r2, r0, lsl #3
 8001d60:	f003 03f0 	and.w	r3, r3, #240	; 0xf0
 8001d64:	4313      	orrs	r3, r2
 8001d66:	07d2      	lsls	r2, r2, #31
 8001d68:	d50a      	bpl.n	8001d80 <CAN2_TX_IRQHandler+0x130>
 8001d6a:	079b      	lsls	r3, r3, #30
 8001d6c:	d522      	bpl.n	8001db4 <CAN2_TX_IRQHandler+0x164>
 8001d6e:	4a21      	ldr	r2, [pc, #132]	; (8001df4 <CAN2_TX_IRQHandler+0x1a4>)
 8001d70:	4921      	ldr	r1, [pc, #132]	; (8001df8 <CAN2_TX_IRQHandler+0x1a8>)
 8001d72:	6893      	ldr	r3, [r2, #8]
 8001d74:	2000      	movs	r0, #0
 8001d76:	f443 3380 	orr.w	r3, r3, #65536	; 0x10000
 8001d7a:	6093      	str	r3, [r2, #8]
 8001d7c:	f881 009a 	strb.w	r0, [r1, #154]	; 0x9a
 8001d80:	bd38      	pop	{r3, r4, r5, pc}
 8001d82:	4610      	mov	r0, r2
 8001d84:	4614      	mov	r4, r2
 8001d86:	e77d      	b.n	8001c84 <CAN2_TX_IRQHandler+0x34>
 8001d88:	4610      	mov	r0, r2
 8001d8a:	4694      	mov	ip, r2
 8001d8c:	e7e0      	b.n	8001d50 <CAN2_TX_IRQHandler+0x100>
 8001d8e:	4610      	mov	r0, r2
 8001d90:	4614      	mov	r4, r2
 8001d92:	e7ab      	b.n	8001cec <CAN2_TX_IRQHandler+0x9c>
 8001d94:	4917      	ldr	r1, [pc, #92]	; (8001df4 <CAN2_TX_IRQHandler+0x1a4>)
 8001d96:	4b18      	ldr	r3, [pc, #96]	; (8001df8 <CAN2_TX_IRQHandler+0x1a8>)
 8001d98:	688a      	ldr	r2, [r1, #8]
 8001d9a:	6d18      	ldr	r0, [r3, #80]	; 0x50
 8001d9c:	2402      	movs	r4, #2
 8001d9e:	f442 7280 	orr.w	r2, r2, #256	; 0x100
 8001da2:	608a      	str	r2, [r1, #8]
 8001da4:	f103 0278 	add.w	r2, r3, #120	; 0x78
 8001da8:	2101      	movs	r1, #1
 8001daa:	f883 4099 	strb.w	r4, [r3, #153]	; 0x99
 8001dae:	f7ff fb19 	bl	80013e4 <Can_Transmit_BufferedMessage>
 8001db2:	e7b4      	b.n	8001d1e <CAN2_TX_IRQHandler+0xce>
 8001db4:	480f      	ldr	r0, [pc, #60]	; (8001df4 <CAN2_TX_IRQHandler+0x1a4>)
 8001db6:	4b10      	ldr	r3, [pc, #64]	; (8001df8 <CAN2_TX_IRQHandler+0x1a8>)
 8001db8:	6882      	ldr	r2, [r0, #8]
 8001dba:	2102      	movs	r1, #2
 8001dbc:	f442 3280 	orr.w	r2, r2, #65536	; 0x10000
 8001dc0:	6082      	str	r2, [r0, #8]
 8001dc2:	f883 109a 	strb.w	r1, [r3, #154]	; 0x9a
 8001dc6:	6d18      	ldr	r0, [r3, #80]	; 0x50
 8001dc8:	f103 0288 	add.w	r2, r3, #136	; 0x88
 8001dcc:	e8bd 4038 	ldmia.w	sp!, {r3, r4, r5, lr}
 8001dd0:	f7ff bb08 	b.w	80013e4 <Can_Transmit_BufferedMessage>
 8001dd4:	4807      	ldr	r0, [pc, #28]	; (8001df4 <CAN2_TX_IRQHandler+0x1a4>)
 8001dd6:	4b08      	ldr	r3, [pc, #32]	; (8001df8 <CAN2_TX_IRQHandler+0x1a8>)
 8001dd8:	6882      	ldr	r2, [r0, #8]
 8001dda:	2402      	movs	r4, #2
 8001ddc:	f042 0201 	orr.w	r2, r2, #1
 8001de0:	6082      	str	r2, [r0, #8]
 8001de2:	6d18      	ldr	r0, [r3, #80]	; 0x50
 8001de4:	f883 4098 	strb.w	r4, [r3, #152]	; 0x98
 8001de8:	f103 0268 	add.w	r2, r3, #104	; 0x68
 8001dec:	f7ff fafa 	bl	80013e4 <Can_Transmit_BufferedMessage>
 8001df0:	e763      	b.n	8001cba <CAN2_TX_IRQHandler+0x6a>
 8001df2:	bf00      	nop
 8001df4:	40006800 	.word	0x40006800
 8001df8:	200080e0 	.word	0x200080e0

08001dfc <CAN1_SCE_IRQHandler>:
 8001dfc:	4a4b      	ldr	r2, [pc, #300]	; (8001f2c <CAN1_SCE_IRQHandler+0x130>)
 8001dfe:	6953      	ldr	r3, [r2, #20]
 8001e00:	b510      	push	{r4, lr}
 8001e02:	4c4b      	ldr	r4, [pc, #300]	; (8001f30 <CAN1_SCE_IRQHandler+0x134>)
 8001e04:	f423 6300 	bic.w	r3, r3, #2048	; 0x800
 8001e08:	68e1      	ldr	r1, [r4, #12]
 8001e0a:	6153      	str	r3, [r2, #20]
 8001e0c:	6890      	ldr	r0, [r2, #8]
 8001e0e:	f04f 0300 	mov.w	r3, #0
 8001e12:	f360 0300 	bfi	r3, r0, #0, #1
 8001e16:	3101      	adds	r1, #1
 8001e18:	f013 0301 	ands.w	r3, r3, #1
 8001e1c:	60e1      	str	r1, [r4, #12]
 8001e1e:	d04b      	beq.n	8001eb8 <CAN1_SCE_IRQHandler+0xbc>
 8001e20:	6891      	ldr	r1, [r2, #8]
 8001e22:	6893      	ldr	r3, [r2, #8]
 8001e24:	6892      	ldr	r2, [r2, #8]
 8001e26:	f3c3 03c0 	ubfx	r3, r3, #3, #1
 8001e2a:	f3c1 0180 	ubfx	r1, r1, #2, #1
 8001e2e:	00db      	lsls	r3, r3, #3
 8001e30:	ea53 0381 	orrs.w	r3, r3, r1, lsl #2
 8001e34:	d145      	bne.n	8001ec2 <CAN1_SCE_IRQHandler+0xc6>
 8001e36:	493d      	ldr	r1, [pc, #244]	; (8001f2c <CAN1_SCE_IRQHandler+0x130>)
 8001e38:	688a      	ldr	r2, [r1, #8]
 8001e3a:	f04f 0300 	mov.w	r3, #0
 8001e3e:	0a12      	lsrs	r2, r2, #8
 8001e40:	f362 0300 	bfi	r3, r2, #0, #1
 8001e44:	f013 0301 	ands.w	r3, r3, #1
 8001e48:	d05c      	beq.n	8001f04 <CAN1_SCE_IRQHandler+0x108>
 8001e4a:	688a      	ldr	r2, [r1, #8]
 8001e4c:	688b      	ldr	r3, [r1, #8]
 8001e4e:	6889      	ldr	r1, [r1, #8]
 8001e50:	f3c3 23c0 	ubfx	r3, r3, #11, #1
 8001e54:	f3c2 2280 	ubfx	r2, r2, #10, #1
 8001e58:	00db      	lsls	r3, r3, #3
 8001e5a:	ea53 0382 	orrs.w	r3, r3, r2, lsl #2
 8001e5e:	d156      	bne.n	8001f0e <CAN1_SCE_IRQHandler+0x112>
 8001e60:	4932      	ldr	r1, [pc, #200]	; (8001f2c <CAN1_SCE_IRQHandler+0x130>)
 8001e62:	688a      	ldr	r2, [r1, #8]
 8001e64:	f04f 0300 	mov.w	r3, #0
 8001e68:	0c12      	lsrs	r2, r2, #16
 8001e6a:	f362 0300 	bfi	r3, r2, #0, #1
 8001e6e:	f013 0301 	ands.w	r3, r3, #1
 8001e72:	d035      	beq.n	8001ee0 <CAN1_SCE_IRQHandler+0xe4>
 8001e74:	688a      	ldr	r2, [r1, #8]
 8001e76:	688b      	ldr	r3, [r1, #8]
 8001e78:	6889      	ldr	r1, [r1, #8]
 8001e7a:	f3c3 43c0 	ubfx	r3, r3, #19, #1
 8001e7e:	f3c2 4280 	ubfx	r2, r2, #18, #1
 8001e82:	00db      	lsls	r3, r3, #3
 8001e84:	ea53 0382 	orrs.w	r3, r3, r2, lsl #2
 8001e88:	d12f      	bne.n	8001eea <CAN1_SCE_IRQHandler+0xee>
 8001e8a:	4b28      	ldr	r3, [pc, #160]	; (8001f2c <CAN1_SCE_IRQHandler+0x130>)
 8001e8c:	685a      	ldr	r2, [r3, #4]
 8001e8e:	0752      	lsls	r2, r2, #29
 8001e90:	d503      	bpl.n	8001e9a <CAN1_SCE_IRQHandler+0x9e>
 8001e92:	685a      	ldr	r2, [r3, #4]
 8001e94:	f042 0204 	orr.w	r2, r2, #4
 8001e98:	605a      	str	r2, [r3, #4]
 8001e9a:	4b24      	ldr	r3, [pc, #144]	; (8001f2c <CAN1_SCE_IRQHandler+0x130>)
 8001e9c:	699a      	ldr	r2, [r3, #24]
 8001e9e:	f012 0f70 	tst.w	r2, #112	; 0x70
 8001ea2:	d003      	beq.n	8001eac <CAN1_SCE_IRQHandler+0xb0>
 8001ea4:	699a      	ldr	r2, [r3, #24]
 8001ea6:	f022 0270 	bic.w	r2, r2, #112	; 0x70
 8001eaa:	619a      	str	r2, [r3, #24]
 8001eac:	4a1f      	ldr	r2, [pc, #124]	; (8001f2c <CAN1_SCE_IRQHandler+0x130>)
 8001eae:	6953      	ldr	r3, [r2, #20]
 8001eb0:	f443 6300 	orr.w	r3, r3, #2048	; 0x800
 8001eb4:	6153      	str	r3, [r2, #20]
 8001eb6:	bd10      	pop	{r4, pc}
 8001eb8:	4619      	mov	r1, r3
 8001eba:	00db      	lsls	r3, r3, #3
 8001ebc:	ea53 0381 	orrs.w	r3, r3, r1, lsl #2
 8001ec0:	d0b9      	beq.n	8001e36 <CAN1_SCE_IRQHandler+0x3a>
 8001ec2:	491a      	ldr	r1, [pc, #104]	; (8001f2c <CAN1_SCE_IRQHandler+0x130>)
 8001ec4:	4a1b      	ldr	r2, [pc, #108]	; (8001f34 <CAN1_SCE_IRQHandler+0x138>)
 8001ec6:	688b      	ldr	r3, [r1, #8]
 8001ec8:	6820      	ldr	r0, [r4, #0]
 8001eca:	f043 030f 	orr.w	r3, r3, #15
 8001ece:	608b      	str	r3, [r1, #8]
 8001ed0:	f04f 0c02 	mov.w	ip, #2
 8001ed4:	2100      	movs	r1, #0
 8001ed6:	f884 c048 	strb.w	ip, [r4, #72]	; 0x48
 8001eda:	f7ff fa83 	bl	80013e4 <Can_Transmit_BufferedMessage>
 8001ede:	e7aa      	b.n	8001e36 <CAN1_SCE_IRQHandler+0x3a>
 8001ee0:	461a      	mov	r2, r3
 8001ee2:	00db      	lsls	r3, r3, #3
 8001ee4:	ea53 0382 	orrs.w	r3, r3, r2, lsl #2
 8001ee8:	d0cf      	beq.n	8001e8a <CAN1_SCE_IRQHandler+0x8e>
 8001eea:	4810      	ldr	r0, [pc, #64]	; (8001f2c <CAN1_SCE_IRQHandler+0x130>)
 8001eec:	4a12      	ldr	r2, [pc, #72]	; (8001f38 <CAN1_SCE_IRQHandler+0x13c>)
 8001eee:	6883      	ldr	r3, [r0, #8]
 8001ef0:	f443 2370 	orr.w	r3, r3, #983040	; 0xf0000
 8001ef4:	6083      	str	r3, [r0, #8]
 8001ef6:	2102      	movs	r1, #2
 8001ef8:	6820      	ldr	r0, [r4, #0]
 8001efa:	f884 104a 	strb.w	r1, [r4, #74]	; 0x4a
 8001efe:	f7ff fa71 	bl	80013e4 <Can_Transmit_BufferedMessage>
 8001f02:	e7c2      	b.n	8001e8a <CAN1_SCE_IRQHandler+0x8e>
 8001f04:	461a      	mov	r2, r3
 8001f06:	00db      	lsls	r3, r3, #3
 8001f08:	ea53 0382 	orrs.w	r3, r3, r2, lsl #2
 8001f0c:	d0a8      	beq.n	8001e60 <CAN1_SCE_IRQHandler+0x64>
 8001f0e:	4907      	ldr	r1, [pc, #28]	; (8001f2c <CAN1_SCE_IRQHandler+0x130>)
 8001f10:	4a0a      	ldr	r2, [pc, #40]	; (8001f3c <CAN1_SCE_IRQHandler+0x140>)
 8001f12:	688b      	ldr	r3, [r1, #8]
 8001f14:	6820      	ldr	r0, [r4, #0]
 8001f16:	f443 6370 	orr.w	r3, r3, #3840	; 0xf00
 8001f1a:	608b      	str	r3, [r1, #8]
 8001f1c:	f04f 0c02 	mov.w	ip, #2
 8001f20:	2101      	movs	r1, #1
 8001f22:	f884 c049 	strb.w	ip, [r4, #73]	; 0x49
 8001f26:	f7ff fa5d 	bl	80013e4 <Can_Transmit_BufferedMessage>
 8001f2a:	e799      	b.n	8001e60 <CAN1_SCE_IRQHandler+0x64>
 8001f2c:	40006400 	.word	0x40006400
 8001f30:	200040e0 	.word	0x200040e0
 8001f34:	200040f8 	.word	0x200040f8
 8001f38:	20004118 	.word	0x20004118
 8001f3c:	20004108 	.word	0x20004108

08001f40 <CAN2_SCE_IRQHandler>:
 8001f40:	4a4b      	ldr	r2, [pc, #300]	; (8002070 <CAN2_SCE_IRQHandler+0x130>)
 8001f42:	6953      	ldr	r3, [r2, #20]
 8001f44:	b510      	push	{r4, lr}
 8001f46:	4c4b      	ldr	r4, [pc, #300]	; (8002074 <CAN2_SCE_IRQHandler+0x134>)
 8001f48:	f423 6300 	bic.w	r3, r3, #2048	; 0x800
 8001f4c:	6de1      	ldr	r1, [r4, #92]	; 0x5c
 8001f4e:	6153      	str	r3, [r2, #20]
 8001f50:	6890      	ldr	r0, [r2, #8]
 8001f52:	f04f 0300 	mov.w	r3, #0
 8001f56:	f360 0300 	bfi	r3, r0, #0, #1
 8001f5a:	3101      	adds	r1, #1
 8001f5c:	f013 0301 	ands.w	r3, r3, #1
 8001f60:	65e1      	str	r1, [r4, #92]	; 0x5c
 8001f62:	d04b      	beq.n	8001ffc <CAN2_SCE_IRQHandler+0xbc>
 8001f64:	6891      	ldr	r1, [r2, #8]
 8001f66:	6893      	ldr	r3, [r2, #8]
 8001f68:	6892      	ldr	r2, [r2, #8]
 8001f6a:	f3c3 03c0 	ubfx	r3, r3, #3, #1
 8001f6e:	f3c1 0180 	ubfx	r1, r1, #2, #1
 8001f72:	00db      	lsls	r3, r3, #3
 8001f74:	ea53 0381 	orrs.w	r3, r3, r1, lsl #2
 8001f78:	d145      	bne.n	8002006 <CAN2_SCE_IRQHandler+0xc6>
 8001f7a:	493d      	ldr	r1, [pc, #244]	; (8002070 <CAN2_SCE_IRQHandler+0x130>)
 8001f7c:	688a      	ldr	r2, [r1, #8]
 8001f7e:	f04f 0300 	mov.w	r3, #0
 8001f82:	0a12      	lsrs	r2, r2, #8
 8001f84:	f362 0300 	bfi	r3, r2, #0, #1
 8001f88:	f013 0301 	ands.w	r3, r3, #1
 8001f8c:	d05c      	beq.n	8002048 <CAN2_SCE_IRQHandler+0x108>
 8001f8e:	688a      	ldr	r2, [r1, #8]
 8001f90:	688b      	ldr	r3, [r1, #8]
 8001f92:	6889      	ldr	r1, [r1, #8]
 8001f94:	f3c3 23c0 	ubfx	r3, r3, #11, #1
 8001f98:	f3c2 2280 	ubfx	r2, r2, #10, #1
 8001f9c:	00db      	lsls	r3, r3, #3
 8001f9e:	ea53 0382 	orrs.w	r3, r3, r2, lsl #2
 8001fa2:	d156      	bne.n	8002052 <CAN2_SCE_IRQHandler+0x112>
 8001fa4:	4932      	ldr	r1, [pc, #200]	; (8002070 <CAN2_SCE_IRQHandler+0x130>)
 8001fa6:	688a      	ldr	r2, [r1, #8]
 8001fa8:	f04f 0300 	mov.w	r3, #0
 8001fac:	0c12      	lsrs	r2, r2, #16
 8001fae:	f362 0300 	bfi	r3, r2, #0, #1
 8001fb2:	f013 0301 	ands.w	r3, r3, #1
 8001fb6:	d035      	beq.n	8002024 <CAN2_SCE_IRQHandler+0xe4>
 8001fb8:	688a      	ldr	r2, [r1, #8]
 8001fba:	688b      	ldr	r3, [r1, #8]
 8001fbc:	6889      	ldr	r1, [r1, #8]
 8001fbe:	f3c3 43c0 	ubfx	r3, r3, #19, #1
 8001fc2:	f3c2 4280 	ubfx	r2, r2, #18, #1
 8001fc6:	00db      	lsls	r3, r3, #3
 8001fc8:	ea53 0382 	orrs.w	r3, r3, r2, lsl #2
 8001fcc:	d12f      	bne.n	800202e <CAN2_SCE_IRQHandler+0xee>
 8001fce:	4b28      	ldr	r3, [pc, #160]	; (8002070 <CAN2_SCE_IRQHandler+0x130>)
 8001fd0:	685a      	ldr	r2, [r3, #4]
 8001fd2:	0752      	lsls	r2, r2, #29
 8001fd4:	d503      	bpl.n	8001fde <CAN2_SCE_IRQHandler+0x9e>
 8001fd6:	685a      	ldr	r2, [r3, #4]
 8001fd8:	f042 0204 	orr.w	r2, r2, #4
 8001fdc:	605a      	str	r2, [r3, #4]
 8001fde:	4b24      	ldr	r3, [pc, #144]	; (8002070 <CAN2_SCE_IRQHandler+0x130>)
 8001fe0:	699a      	ldr	r2, [r3, #24]
 8001fe2:	f012 0f70 	tst.w	r2, #112	; 0x70
 8001fe6:	d003      	beq.n	8001ff0 <CAN2_SCE_IRQHandler+0xb0>
 8001fe8:	699a      	ldr	r2, [r3, #24]
 8001fea:	f022 0270 	bic.w	r2, r2, #112	; 0x70
 8001fee:	619a      	str	r2, [r3, #24]
 8001ff0:	4a1f      	ldr	r2, [pc, #124]	; (8002070 <CAN2_SCE_IRQHandler+0x130>)
 8001ff2:	6953      	ldr	r3, [r2, #20]
 8001ff4:	f443 6300 	orr.w	r3, r3, #2048	; 0x800
 8001ff8:	6153      	str	r3, [r2, #20]
 8001ffa:	bd10      	pop	{r4, pc}
 8001ffc:	4619      	mov	r1, r3
 8001ffe:	00db      	lsls	r3, r3, #3
 8002000:	ea53 0381 	orrs.w	r3, r3, r1, lsl #2
 8002004:	d0b9      	beq.n	8001f7a <CAN2_SCE_IRQHandler+0x3a>
 8002006:	491a      	ldr	r1, [pc, #104]	; (8002070 <CAN2_SCE_IRQHandler+0x130>)
 8002008:	4a1b      	ldr	r2, [pc, #108]	; (8002078 <CAN2_SCE_IRQHandler+0x138>)
 800200a:	688b      	ldr	r3, [r1, #8]
 800200c:	6d20      	ldr	r0, [r4, #80]	; 0x50
 800200e:	f043 030f 	orr.w	r3, r3, #15
 8002012:	608b      	str	r3, [r1, #8]
 8002014:	f04f 0c02 	mov.w	ip, #2
 8002018:	2100      	movs	r1, #0
 800201a:	f884 c098 	strb.w	ip, [r4, #152]	; 0x98
 800201e:	f7ff f9e1 	bl	80013e4 <Can_Transmit_BufferedMessage>
 8002022:	e7aa      	b.n	8001f7a <CAN2_SCE_IRQHandler+0x3a>
 8002024:	461a      	mov	r2, r3
 8002026:	00db      	lsls	r3, r3, #3
 8002028:	ea53 0382 	orrs.w	r3, r3, r2, lsl #2
 800202c:	d0cf      	beq.n	8001fce <CAN2_SCE_IRQHandler+0x8e>
 800202e:	4810      	ldr	r0, [pc, #64]	; (8002070 <CAN2_SCE_IRQHandler+0x130>)
 8002030:	4a12      	ldr	r2, [pc, #72]	; (800207c <CAN2_SCE_IRQHandler+0x13c>)
 8002032:	6883      	ldr	r3, [r0, #8]
 8002034:	f443 2370 	orr.w	r3, r3, #983040	; 0xf0000
 8002038:	6083      	str	r3, [r0, #8]
 800203a:	2102      	movs	r1, #2
 800203c:	6d20      	ldr	r0, [r4, #80]	; 0x50
 800203e:	f884 109a 	strb.w	r1, [r4, #154]	; 0x9a
 8002042:	f7ff f9cf 	bl	80013e4 <Can_Transmit_BufferedMessage>
 8002046:	e7c2      	b.n	8001fce <CAN2_SCE_IRQHandler+0x8e>
 8002048:	461a      	mov	r2, r3
 800204a:	00db      	lsls	r3, r3, #3
 800204c:	ea53 0382 	orrs.w	r3, r3, r2, lsl #2
 8002050:	d0a8      	beq.n	8001fa4 <CAN2_SCE_IRQHandler+0x64>
 8002052:	4907      	ldr	r1, [pc, #28]	; (8002070 <CAN2_SCE_IRQHandler+0x130>)
 8002054:	4a0a      	ldr	r2, [pc, #40]	; (8002080 <CAN2_SCE_IRQHandler+0x140>)
 8002056:	688b      	ldr	r3, [r1, #8]
 8002058:	6d20      	ldr	r0, [r4, #80]	; 0x50
 800205a:	f443 6370 	orr.w	r3, r3, #3840	; 0xf00
 800205e:	608b      	str	r3, [r1, #8]
 8002060:	f04f 0c02 	mov.w	ip, #2
 8002064:	2101      	movs	r1, #1
 8002066:	f884 c099 	strb.w	ip, [r4, #153]	; 0x99
 800206a:	f7ff f9bb 	bl	80013e4 <Can_Transmit_BufferedMessage>
 800206e:	e799      	b.n	8001fa4 <CAN2_SCE_IRQHandler+0x64>
 8002070:	40006800 	.word	0x40006800
 8002074:	200080e0 	.word	0x200080e0
 8002078:	20008148 	.word	0x20008148
 800207c:	20008168 	.word	0x20008168
 8002080:	20008158 	.word	0x20008158

08002084 <init_dual_cc_buf>:
 8002084:	2300      	movs	r3, #0
 8002086:	2201      	movs	r2, #1
 8002088:	e9c0 3300 	strd	r3, r3, [r0]
 800208c:	e9c0 3362 	strd	r3, r3, [r0, #392]	; 0x188
 8002090:	f8c0 2310 	str.w	r2, [r0, #784]	; 0x310
 8002094:	f44f 7034 	mov.w	r0, #720	; 0x2d0
 8002098:	4770      	bx	lr
 800209a:	bf00      	nop

0800209c <deinit_dual_cc_buf>:
 800209c:	2300      	movs	r3, #0
 800209e:	e9c0 3300 	strd	r3, r3, [r0]
 80020a2:	e9c0 3362 	strd	r3, r3, [r0, #392]	; 0x188
 80020a6:	f8c0 3310 	str.w	r3, [r0, #784]	; 0x310
 80020aa:	4770      	bx	lr

080020ac <fill_dual_cc_buf>:
 80020ac:	b5f8      	push	{r3, r4, r5, r6, r7, lr}
 80020ae:	4615      	mov	r5, r2
 80020b0:	2a00      	cmp	r2, #0
 80020b2:	d046      	beq.n	8002142 <fill_dual_cc_buf+0x96>
 80020b4:	4604      	mov	r4, r0
 80020b6:	f8d0 0310 	ldr.w	r0, [r0, #784]	; 0x310
 80020ba:	07c2      	lsls	r2, r0, #31
 80020bc:	d415      	bmi.n	80020ea <fill_dual_cc_buf+0x3e>
 80020be:	0703      	lsls	r3, r0, #28
 80020c0:	d541      	bpl.n	8002146 <fill_dual_cc_buf+0x9a>
 80020c2:	f8d4 3188 	ldr.w	r3, [r4, #392]	; 0x188
 80020c6:	f5c3 76b4 	rsb	r6, r3, #360	; 0x168
 80020ca:	42b5      	cmp	r5, r6
 80020cc:	462f      	mov	r7, r5
 80020ce:	bf28      	it	cs
 80020d0:	4637      	movcs	r7, r6
 80020d2:	2f00      	cmp	r7, #0
 80020d4:	d14a      	bne.n	800216c <fill_dual_cc_buf+0xc0>
 80020d6:	42b5      	cmp	r5, r6
 80020d8:	d945      	bls.n	8002166 <fill_dual_cc_buf+0xba>
 80020da:	2000      	movs	r0, #0
 80020dc:	e9c4 0000 	strd	r0, r0, [r4]
 80020e0:	e9c4 0062 	strd	r0, r0, [r4, #392]	; 0x188
 80020e4:	f8c4 0310 	str.w	r0, [r4, #784]	; 0x310
 80020e8:	bdf8      	pop	{r3, r4, r5, r6, r7, pc}
 80020ea:	6820      	ldr	r0, [r4, #0]
 80020ec:	f5b0 7fb4 	cmp.w	r0, #360	; 0x168
 80020f0:	f5c0 77b4 	rsb	r7, r0, #360	; 0x168
 80020f4:	d05f      	beq.n	80021b6 <fill_dual_cc_buf+0x10a>
 80020f6:	42af      	cmp	r7, r5
 80020f8:	bf28      	it	cs
 80020fa:	462f      	movcs	r7, r5
 80020fc:	460e      	mov	r6, r1
 80020fe:	2f00      	cmp	r7, #0
 8002100:	d14a      	bne.n	8002198 <fill_dual_cc_buf+0xec>
 8002102:	f8d4 0188 	ldr.w	r0, [r4, #392]	; 0x188
 8002106:	f5b0 7fb4 	cmp.w	r0, #360	; 0x168
 800210a:	d03b      	beq.n	8002184 <fill_dual_cc_buf+0xd8>
 800210c:	1beb      	subs	r3, r5, r7
 800210e:	f5c0 75b4 	rsb	r5, r0, #360	; 0x168
 8002112:	429d      	cmp	r5, r3
 8002114:	eb06 0107 	add.w	r1, r6, r7
 8002118:	bf28      	it	cs
 800211a:	461d      	movcs	r5, r3
 800211c:	4420      	add	r0, r4
 800211e:	462a      	mov	r2, r5
 8002120:	f500 70c8 	add.w	r0, r0, #400	; 0x190
 8002124:	f7fe f898 	bl	8000258 <memcpy>
 8002128:	f8d4 3188 	ldr.w	r3, [r4, #392]	; 0x188
 800212c:	442b      	add	r3, r5
 800212e:	f8c4 3188 	str.w	r3, [r4, #392]	; 0x188
 8002132:	f5c3 73b4 	rsb	r3, r3, #360	; 0x168
 8002136:	b32b      	cbz	r3, 8002184 <fill_dual_cc_buf+0xd8>
 8002138:	6820      	ldr	r0, [r4, #0]
 800213a:	f5c0 70b4 	rsb	r0, r0, #360	; 0x168
 800213e:	4418      	add	r0, r3
 8002140:	bdf8      	pop	{r3, r4, r5, r6, r7, pc}
 8002142:	4610      	mov	r0, r2
 8002144:	bdf8      	pop	{r3, r4, r5, r6, r7, pc}
 8002146:	f010 0010 	ands.w	r0, r0, #16
 800214a:	d0cd      	beq.n	80020e8 <fill_dual_cc_buf+0x3c>
 800214c:	6820      	ldr	r0, [r4, #0]
 800214e:	f5c0 76b4 	rsb	r6, r0, #360	; 0x168
 8002152:	42b5      	cmp	r5, r6
 8002154:	462f      	mov	r7, r5
 8002156:	bf28      	it	cs
 8002158:	4637      	movcs	r7, r6
 800215a:	bbb7      	cbnz	r7, 80021ca <fill_dual_cc_buf+0x11e>
 800215c:	42b5      	cmp	r5, r6
 800215e:	d8bc      	bhi.n	80020da <fill_dual_cc_buf+0x2e>
 8002160:	f5c0 70b4 	rsb	r0, r0, #360	; 0x168
 8002164:	bdf8      	pop	{r3, r4, r5, r6, r7, pc}
 8002166:	f5c3 70b4 	rsb	r0, r3, #360	; 0x168
 800216a:	bdf8      	pop	{r3, r4, r5, r6, r7, pc}
 800216c:	4423      	add	r3, r4
 800216e:	f503 70c8 	add.w	r0, r3, #400	; 0x190
 8002172:	463a      	mov	r2, r7
 8002174:	f7fe f870 	bl	8000258 <memcpy>
 8002178:	f8d4 3188 	ldr.w	r3, [r4, #392]	; 0x188
 800217c:	443b      	add	r3, r7
 800217e:	f8c4 3188 	str.w	r3, [r4, #392]	; 0x188
 8002182:	e7a8      	b.n	80020d6 <fill_dual_cc_buf+0x2a>
 8002184:	f8d4 3310 	ldr.w	r3, [r4, #784]	; 0x310
 8002188:	f023 0301 	bic.w	r3, r3, #1
 800218c:	f043 030a 	orr.w	r3, r3, #10
 8002190:	2000      	movs	r0, #0
 8002192:	f8c4 3310 	str.w	r3, [r4, #784]	; 0x310
 8002196:	bdf8      	pop	{r3, r4, r5, r6, r7, pc}
 8002198:	3008      	adds	r0, #8
 800219a:	4420      	add	r0, r4
 800219c:	463a      	mov	r2, r7
 800219e:	f7fe f85b 	bl	8000258 <memcpy>
 80021a2:	6823      	ldr	r3, [r4, #0]
 80021a4:	42bd      	cmp	r5, r7
 80021a6:	443b      	add	r3, r7
 80021a8:	6023      	str	r3, [r4, #0]
 80021aa:	d8aa      	bhi.n	8002102 <fill_dual_cc_buf+0x56>
 80021ac:	f8d4 3188 	ldr.w	r3, [r4, #392]	; 0x188
 80021b0:	f5c3 73b4 	rsb	r3, r3, #360	; 0x168
 80021b4:	e7bf      	b.n	8002136 <fill_dual_cc_buf+0x8a>
 80021b6:	f8d4 0188 	ldr.w	r0, [r4, #392]	; 0x188
 80021ba:	f5c0 73b4 	rsb	r3, r0, #360	; 0x168
 80021be:	429d      	cmp	r5, r3
 80021c0:	bf28      	it	cs
 80021c2:	461d      	movcs	r5, r3
 80021c4:	2d00      	cmp	r5, #0
 80021c6:	d0b6      	beq.n	8002136 <fill_dual_cc_buf+0x8a>
 80021c8:	e7a8      	b.n	800211c <fill_dual_cc_buf+0x70>
 80021ca:	3008      	adds	r0, #8
 80021cc:	4420      	add	r0, r4
 80021ce:	463a      	mov	r2, r7
 80021d0:	f7fe f842 	bl	8000258 <memcpy>
 80021d4:	6823      	ldr	r3, [r4, #0]
 80021d6:	18f8      	adds	r0, r7, r3
 80021d8:	6020      	str	r0, [r4, #0]
 80021da:	e7bf      	b.n	800215c <fill_dual_cc_buf+0xb0>

080021dc <get_current_READ_buf_read_level>:
 80021dc:	4602      	mov	r2, r0
 80021de:	f8d0 0310 	ldr.w	r0, [r0, #784]	; 0x310
 80021e2:	0703      	lsls	r3, r0, #28
 80021e4:	d405      	bmi.n	80021f2 <get_current_READ_buf_read_level+0x16>
 80021e6:	f010 0010 	ands.w	r0, r0, #16
 80021ea:	bf18      	it	ne
 80021ec:	f8d2 018c 	ldrne.w	r0, [r2, #396]	; 0x18c
 80021f0:	4770      	bx	lr
 80021f2:	6850      	ldr	r0, [r2, #4]
 80021f4:	4770      	bx	lr
 80021f6:	bf00      	nop

080021f8 <get_current_WRITE_buf_fill_level>:
 80021f8:	f8d0 3310 	ldr.w	r3, [r0, #784]	; 0x310
 80021fc:	071a      	lsls	r2, r3, #28
 80021fe:	d407      	bmi.n	8002210 <get_current_WRITE_buf_fill_level+0x18>
 8002200:	06db      	lsls	r3, r3, #27
 8002202:	bf46      	itte	mi
 8002204:	6800      	ldrmi	r0, [r0, #0]
 8002206:	f5c0 70b4 	rsbmi	r0, r0, #360	; 0x168
 800220a:	f44f 70c0 	movpl.w	r0, #384	; 0x180
 800220e:	4770      	bx	lr
 8002210:	f8d0 0188 	ldr.w	r0, [r0, #392]	; 0x188
 8002214:	f5c0 70b4 	rsb	r0, r0, #360	; 0x168
 8002218:	4770      	bx	lr
 800221a:	bf00      	nop

0800221c <pop_dual_cc_buf_item>:
 800221c:	f8d1 3310 	ldr.w	r3, [r1, #784]	; 0x310
 8002220:	071a      	lsls	r2, r3, #28
 8002222:	b510      	push	{r4, lr}
 8002224:	d438      	bmi.n	8002298 <pop_dual_cc_buf_item+0x7c>
 8002226:	06dc      	lsls	r4, r3, #27
 8002228:	d401      	bmi.n	800222e <pop_dual_cc_buf_item+0x12>
 800222a:	2000      	movs	r0, #0
 800222c:	bd10      	pop	{r4, pc}
 800222e:	e9d1 3262 	ldrd	r3, r2, [r1, #392]	; 0x188
 8002232:	eba3 0c02 	sub.w	ip, r3, r2
 8002236:	f1bc 0f17 	cmp.w	ip, #23
 800223a:	d92a      	bls.n	8002292 <pop_dual_cc_buf_item+0x76>
 800223c:	f501 7cc4 	add.w	ip, r1, #392	; 0x188
 8002240:	3208      	adds	r2, #8
 8002242:	eb0c 0302 	add.w	r3, ip, r2
 8002246:	f85c 2002 	ldr.w	r2, [ip, r2]
 800224a:	689c      	ldr	r4, [r3, #8]
 800224c:	f8d3 c004 	ldr.w	ip, [r3, #4]
 8002250:	f8d3 e00c 	ldr.w	lr, [r3, #12]
 8002254:	f8c0 e00c 	str.w	lr, [r0, #12]
 8002258:	6002      	str	r2, [r0, #0]
 800225a:	f8c0 c004 	str.w	ip, [r0, #4]
 800225e:	6084      	str	r4, [r0, #8]
 8002260:	691a      	ldr	r2, [r3, #16]
 8002262:	f8d3 c014 	ldr.w	ip, [r3, #20]
 8002266:	f8c0 c014 	str.w	ip, [r0, #20]
 800226a:	6102      	str	r2, [r0, #16]
 800226c:	e9d1 3062 	ldrd	r3, r0, [r1, #392]	; 0x188
 8002270:	3018      	adds	r0, #24
 8002272:	f8c1 018c 	str.w	r0, [r1, #396]	; 0x18c
 8002276:	1a18      	subs	r0, r3, r0
 8002278:	d03c      	beq.n	80022f4 <pop_dual_cc_buf_item+0xd8>
 800227a:	3001      	adds	r0, #1
 800227c:	d1d5      	bne.n	800222a <pop_dual_cc_buf_item+0xe>
 800227e:	f8d1 3310 	ldr.w	r3, [r1, #784]	; 0x310
 8002282:	071a      	lsls	r2, r3, #28
 8002284:	bf48      	it	mi
 8002286:	680b      	ldrmi	r3, [r1, #0]
 8002288:	d403      	bmi.n	8002292 <pop_dual_cc_buf_item+0x76>
 800228a:	06db      	lsls	r3, r3, #27
 800228c:	d5cd      	bpl.n	800222a <pop_dual_cc_buf_item+0xe>
 800228e:	f8d1 3188 	ldr.w	r3, [r1, #392]	; 0x188
 8002292:	f5c3 70b4 	rsb	r0, r3, #360	; 0x168
 8002296:	bd10      	pop	{r4, pc}
 8002298:	e9d1 3200 	ldrd	r3, r2, [r1]
 800229c:	eba3 0c02 	sub.w	ip, r3, r2
 80022a0:	f1bc 0f17 	cmp.w	ip, #23
 80022a4:	d9f5      	bls.n	8002292 <pop_dual_cc_buf_item+0x76>
 80022a6:	3208      	adds	r2, #8
 80022a8:	188b      	adds	r3, r1, r2
 80022aa:	588a      	ldr	r2, [r1, r2]
 80022ac:	f8d3 c004 	ldr.w	ip, [r3, #4]
 80022b0:	f8d3 e008 	ldr.w	lr, [r3, #8]
 80022b4:	68dc      	ldr	r4, [r3, #12]
 80022b6:	60c4      	str	r4, [r0, #12]
 80022b8:	6002      	str	r2, [r0, #0]
 80022ba:	f8c0 c004 	str.w	ip, [r0, #4]
 80022be:	f8c0 e008 	str.w	lr, [r0, #8]
 80022c2:	691a      	ldr	r2, [r3, #16]
 80022c4:	f8d3 c014 	ldr.w	ip, [r3, #20]
 80022c8:	f8c0 c014 	str.w	ip, [r0, #20]
 80022cc:	6102      	str	r2, [r0, #16]
 80022ce:	e9d1 0300 	ldrd	r0, r3, [r1]
 80022d2:	3318      	adds	r3, #24
 80022d4:	1ac0      	subs	r0, r0, r3
 80022d6:	604b      	str	r3, [r1, #4]
 80022d8:	d1cf      	bne.n	800227a <pop_dual_cc_buf_item+0x5e>
 80022da:	f8d1 3310 	ldr.w	r3, [r1, #784]	; 0x310
 80022de:	6048      	str	r0, [r1, #4]
 80022e0:	f023 0308 	bic.w	r3, r3, #8
 80022e4:	f043 0310 	orr.w	r3, r3, #16
 80022e8:	6008      	str	r0, [r1, #0]
 80022ea:	f8c1 3310 	str.w	r3, [r1, #784]	; 0x310
 80022ee:	f44f 70b4 	mov.w	r0, #360	; 0x168
 80022f2:	bd10      	pop	{r4, pc}
 80022f4:	f8d1 3310 	ldr.w	r3, [r1, #784]	; 0x310
 80022f8:	f8c1 018c 	str.w	r0, [r1, #396]	; 0x18c
 80022fc:	f023 0310 	bic.w	r3, r3, #16
 8002300:	f043 0308 	orr.w	r3, r3, #8
 8002304:	f8c1 0188 	str.w	r0, [r1, #392]	; 0x188
 8002308:	f8c1 3310 	str.w	r3, [r1, #784]	; 0x310
 800230c:	f44f 70b4 	mov.w	r0, #360	; 0x168
 8002310:	bd10      	pop	{r4, pc}
 8002312:	bf00      	nop

08002314 <CDC_setInjectionMsg.constprop.0>:
 8002314:	b570      	push	{r4, r5, r6, lr}
 8002316:	4970      	ldr	r1, [pc, #448]	; (80024d8 <CDC_setInjectionMsg.constprop.0+0x1c4>)
 8002318:	4870      	ldr	r0, [pc, #448]	; (80024dc <CDC_setInjectionMsg.constprop.0+0x1c8>)
 800231a:	b082      	sub	sp, #8
 800231c:	f7ff ff7e 	bl	800221c <pop_dual_cc_buf_item>
 8002320:	bb50      	cbnz	r0, 8002378 <CDC_setInjectionMsg.constprop.0+0x64>
 8002322:	4c6d      	ldr	r4, [pc, #436]	; (80024d8 <CDC_setInjectionMsg.constprop.0+0x1c4>)
 8002324:	4620      	mov	r0, r4
 8002326:	f7ff ff59 	bl	80021dc <get_current_READ_buf_read_level>
 800232a:	f5b0 7f90 	cmp.w	r0, #288	; 0x120
 800232e:	d905      	bls.n	800233c <CDC_setInjectionMsg.constprop.0+0x28>
 8002330:	4620      	mov	r0, r4
 8002332:	f7ff ff61 	bl	80021f8 <get_current_WRITE_buf_fill_level>
 8002336:	2800      	cmp	r0, #0
 8002338:	f040 808e 	bne.w	8002458 <CDC_setInjectionMsg.constprop.0+0x144>
 800233c:	f8d4 2310 	ldr.w	r2, [r4, #784]	; 0x310
 8002340:	f012 0c20 	ands.w	ip, r2, #32
 8002344:	d12e      	bne.n	80023a4 <CDC_setInjectionMsg.constprop.0+0x90>
 8002346:	4c65      	ldr	r4, [pc, #404]	; (80024dc <CDC_setInjectionMsg.constprop.0+0x1c8>)
 8002348:	6a63      	ldr	r3, [r4, #36]	; 0x24
 800234a:	f033 03ff 	bics.w	r3, r3, #255	; 0xff
 800234e:	d075      	beq.n	800243c <CDC_setInjectionMsg.constprop.0+0x128>
 8002350:	8ce3      	ldrh	r3, [r4, #38]	; 0x26
 8002352:	2b09      	cmp	r3, #9
 8002354:	d878      	bhi.n	8002448 <CDC_setInjectionMsg.constprop.0+0x134>
 8002356:	f894 2025 	ldrb.w	r2, [r4, #37]	; 0x25
 800235a:	2a00      	cmp	r2, #0
 800235c:	f000 80aa 	beq.w	80024b4 <CDC_setInjectionMsg.constprop.0+0x1a0>
 8002360:	3a01      	subs	r2, #1
 8002362:	b2d2      	uxtb	r2, r2
 8002364:	f242 7306 	movw	r3, #9990	; 0x2706
 8002368:	f894 1024 	ldrb.w	r1, [r4, #36]	; 0x24
 800236c:	f884 2025 	strb.w	r2, [r4, #37]	; 0x25
 8002370:	84e3      	strh	r3, [r4, #38]	; 0x26
 8002372:	4694      	mov	ip, r2
 8002374:	461e      	mov	r6, r3
 8002376:	e01b      	b.n	80023b0 <CDC_setInjectionMsg.constprop.0+0x9c>
 8002378:	4b59      	ldr	r3, [pc, #356]	; (80024e0 <CDC_setInjectionMsg.constprop.0+0x1cc>)
 800237a:	2104      	movs	r1, #4
 800237c:	fba3 3000 	umull	r3, r0, r3, r0
 8002380:	fa20 f201 	lsr.w	r2, r0, r1
 8002384:	0f05      	lsrs	r5, r0, #28
 8002386:	0d04      	lsrs	r4, r0, #20
 8002388:	0b03      	lsrs	r3, r0, #12
 800238a:	eb0d 0001 	add.w	r0, sp, r1
 800238e:	f88d 5004 	strb.w	r5, [sp, #4]
 8002392:	f88d 4005 	strb.w	r4, [sp, #5]
 8002396:	f88d 3006 	strb.w	r3, [sp, #6]
 800239a:	f88d 2007 	strb.w	r2, [sp, #7]
 800239e:	f002 fb6f 	bl	8004a80 <USB_CDC_send_data>
 80023a2:	e7be      	b.n	8002322 <CDC_setInjectionMsg.constprop.0+0xe>
 80023a4:	4c4d      	ldr	r4, [pc, #308]	; (80024dc <CDC_setInjectionMsg.constprop.0+0x1c8>)
 80023a6:	2300      	movs	r3, #0
 80023a8:	4619      	mov	r1, r3
 80023aa:	6263      	str	r3, [r4, #36]	; 0x24
 80023ac:	469c      	mov	ip, r3
 80023ae:	461e      	mov	r6, r3
 80023b0:	6865      	ldr	r5, [r4, #4]
 80023b2:	8ba0      	ldrh	r0, [r4, #28]
 80023b4:	f8b4 e002 	ldrh.w	lr, [r4, #2]
 80023b8:	8be3      	ldrh	r3, [r4, #30]
 80023ba:	1a2a      	subs	r2, r5, r0
 80023bc:	fab2 f282 	clz	r2, r2
 80023c0:	459e      	cmp	lr, r3
 80023c2:	ea4f 1252 	mov.w	r2, r2, lsr #5
 80023c6:	bf28      	it	cs
 80023c8:	2200      	movcs	r2, #0
 80023ca:	bba2      	cbnz	r2, 8002436 <CDC_setInjectionMsg.constprop.0+0x122>
 80023cc:	4285      	cmp	r5, r0
 80023ce:	d332      	bcc.n	8002436 <CDC_setInjectionMsg.constprop.0+0x122>
 80023d0:	459e      	cmp	lr, r3
 80023d2:	d27c      	bcs.n	80024ce <CDC_setInjectionMsg.constprop.0+0x1ba>
 80023d4:	f50e 521c 	add.w	r2, lr, #9984	; 0x2700
 80023d8:	320f      	adds	r2, #15
 80023da:	1ad2      	subs	r2, r2, r3
 80023dc:	b293      	uxth	r3, r2
 80023de:	1e6a      	subs	r2, r5, #1
 80023e0:	1a12      	subs	r2, r2, r0
 80023e2:	4433      	add	r3, r6
 80023e4:	b29b      	uxth	r3, r3
 80023e6:	f242 700f 	movw	r0, #9999	; 0x270f
 80023ea:	4283      	cmp	r3, r0
 80023ec:	d904      	bls.n	80023f8 <CDC_setInjectionMsg.constprop.0+0xe4>
 80023ee:	f5a3 531c 	sub.w	r3, r3, #9984	; 0x2700
 80023f2:	3b10      	subs	r3, #16
 80023f4:	b29b      	uxth	r3, r3
 80023f6:	3201      	adds	r2, #1
 80023f8:	4462      	add	r2, ip
 80023fa:	f242 107b 	movw	r0, #8571	; 0x217b
 80023fe:	8420      	strh	r0, [r4, #32]
 8002400:	ebc2 1042 	rsb	r0, r2, r2, lsl #5
 8002404:	eb02 0280 	add.w	r2, r2, r0, lsl #2
 8002408:	eb02 0282 	add.w	r2, r2, r2, lsl #2
 800240c:	eb03 1302 	add.w	r3, r3, r2, lsl #4
 8002410:	b29b      	uxth	r3, r3
 8002412:	428b      	cmp	r3, r1
 8002414:	bf28      	it	cs
 8002416:	4619      	movcs	r1, r3
 8002418:	f04f 4280 	mov.w	r2, #1073741824	; 0x40000000
 800241c:	f242 107b 	movw	r0, #8571	; 0x217b
 8002420:	83a5      	strh	r5, [r4, #28]
 8002422:	f8a4 e01e 	strh.w	lr, [r4, #30]
 8002426:	bf2c      	ite	cs
 8002428:	8463      	strhcs	r3, [r4, #34]	; 0x22
 800242a:	8461      	strhcc	r1, [r4, #34]	; 0x22
 800242c:	b002      	add	sp, #8
 800242e:	e8bd 4070 	ldmia.w	sp!, {r4, r5, r6, lr}
 8002432:	f001 bcf3 	b.w	8003e1c <startBasicTimer>
 8002436:	462a      	mov	r2, r5
 8002438:	4673      	mov	r3, lr
 800243a:	e7d2      	b.n	80023e2 <CDC_setInjectionMsg.constprop.0+0xce>
 800243c:	8ce6      	ldrh	r6, [r4, #38]	; 0x26
 800243e:	f894 c025 	ldrb.w	ip, [r4, #37]	; 0x25
 8002442:	f894 1024 	ldrb.w	r1, [r4, #36]	; 0x24
 8002446:	e7b3      	b.n	80023b0 <CDC_setInjectionMsg.constprop.0+0x9c>
 8002448:	3b0a      	subs	r3, #10
 800244a:	b29e      	uxth	r6, r3
 800244c:	f894 c025 	ldrb.w	ip, [r4, #37]	; 0x25
 8002450:	f894 1024 	ldrb.w	r1, [r4, #36]	; 0x24
 8002454:	84e6      	strh	r6, [r4, #38]	; 0x26
 8002456:	e7ab      	b.n	80023b0 <CDC_setInjectionMsg.constprop.0+0x9c>
 8002458:	f8d4 3310 	ldr.w	r3, [r4, #784]	; 0x310
 800245c:	4c1f      	ldr	r4, [pc, #124]	; (80024dc <CDC_setInjectionMsg.constprop.0+0x1c8>)
 800245e:	069b      	lsls	r3, r3, #26
 8002460:	d510      	bpl.n	8002484 <CDC_setInjectionMsg.constprop.0+0x170>
 8002462:	f44f 2320 	mov.w	r3, #655360	; 0xa0000
 8002466:	f04f 0c00 	mov.w	ip, #0
 800246a:	6263      	str	r3, [r4, #36]	; 0x24
 800246c:	260a      	movs	r6, #10
 800246e:	4661      	mov	r1, ip
 8002470:	4b1c      	ldr	r3, [pc, #112]	; (80024e4 <CDC_setInjectionMsg.constprop.0+0x1d0>)
 8002472:	7d1b      	ldrb	r3, [r3, #20]
 8002474:	2b07      	cmp	r3, #7
 8002476:	bf02      	ittt	eq
 8002478:	3101      	addeq	r1, #1
 800247a:	b2c9      	uxtbeq	r1, r1
 800247c:	f884 1024 	strbeq.w	r1, [r4, #36]	; 0x24
 8002480:	b289      	uxth	r1, r1
 8002482:	e795      	b.n	80023b0 <CDC_setInjectionMsg.constprop.0+0x9c>
 8002484:	8ce1      	ldrh	r1, [r4, #38]	; 0x26
 8002486:	f101 030a 	add.w	r3, r1, #10
 800248a:	b29e      	uxth	r6, r3
 800248c:	f242 7210 	movw	r2, #10000	; 0x2710
 8002490:	4296      	cmp	r6, r2
 8002492:	84e6      	strh	r6, [r4, #38]	; 0x26
 8002494:	d916      	bls.n	80024c4 <CDC_setInjectionMsg.constprop.0+0x1b0>
 8002496:	f894 2025 	ldrb.w	r2, [r4, #37]	; 0x25
 800249a:	f5a1 531c 	sub.w	r3, r1, #9984	; 0x2700
 800249e:	3b06      	subs	r3, #6
 80024a0:	3201      	adds	r2, #1
 80024a2:	b2d2      	uxtb	r2, r2
 80024a4:	b29e      	uxth	r6, r3
 80024a6:	f894 1024 	ldrb.w	r1, [r4, #36]	; 0x24
 80024aa:	84e6      	strh	r6, [r4, #38]	; 0x26
 80024ac:	f884 2025 	strb.w	r2, [r4, #37]	; 0x25
 80024b0:	4694      	mov	ip, r2
 80024b2:	e7dd      	b.n	8002470 <CDC_setInjectionMsg.constprop.0+0x15c>
 80024b4:	f894 1024 	ldrb.w	r1, [r4, #36]	; 0x24
 80024b8:	f8a4 c026 	strh.w	ip, [r4, #38]	; 0x26
 80024bc:	f884 c025 	strb.w	ip, [r4, #37]	; 0x25
 80024c0:	4666      	mov	r6, ip
 80024c2:	e775      	b.n	80023b0 <CDC_setInjectionMsg.constprop.0+0x9c>
 80024c4:	f894 1024 	ldrb.w	r1, [r4, #36]	; 0x24
 80024c8:	f894 c025 	ldrb.w	ip, [r4, #37]	; 0x25
 80024cc:	e7d0      	b.n	8002470 <CDC_setInjectionMsg.constprop.0+0x15c>
 80024ce:	ebae 0303 	sub.w	r3, lr, r3
 80024d2:	b29b      	uxth	r3, r3
 80024d4:	1a2a      	subs	r2, r5, r0
 80024d6:	e784      	b.n	80023e2 <CDC_setInjectionMsg.constprop.0+0xce>
 80024d8:	200081a8 	.word	0x200081a8
 80024dc:	20008180 	.word	0x20008180
 80024e0:	aaaaaaab 	.word	0xaaaaaaab
 80024e4:	20000054 	.word	0x20000054

080024e8 <stopMessageInjection>:
 80024e8:	b508      	push	{r3, lr}
 80024ea:	4806      	ldr	r0, [pc, #24]	; (8002504 <stopMessageInjection+0x1c>)
 80024ec:	f7ff fdd6 	bl	800209c <deinit_dual_cc_buf>
 80024f0:	4b05      	ldr	r3, [pc, #20]	; (8002508 <stopMessageInjection+0x20>)
 80024f2:	2202      	movs	r2, #2
 80024f4:	74da      	strb	r2, [r3, #19]
 80024f6:	f04f 4080 	mov.w	r0, #1073741824	; 0x40000000
 80024fa:	e8bd 4008 	ldmia.w	sp!, {r3, lr}
 80024fe:	f001 bcaf 	b.w	8003e60 <stopBasicTimer>
 8002502:	bf00      	nop
 8002504:	200081a8 	.word	0x200081a8
 8002508:	20000054 	.word	0x20000054

0800250c <CDC_can_inj_receive_data>:
 800250c:	b510      	push	{r4, lr}
 800250e:	4c0a      	ldr	r4, [pc, #40]	; (8002538 <CDC_can_inj_receive_data+0x2c>)
 8002510:	460a      	mov	r2, r1
 8002512:	4601      	mov	r1, r0
 8002514:	4620      	mov	r0, r4
 8002516:	f7ff fdc9 	bl	80020ac <fill_dual_cc_buf>
 800251a:	f8d4 3310 	ldr.w	r3, [r4, #784]	; 0x310
 800251e:	0799      	lsls	r1, r3, #30
 8002520:	d501      	bpl.n	8002526 <CDC_can_inj_receive_data+0x1a>
 8002522:	075a      	lsls	r2, r3, #29
 8002524:	d500      	bpl.n	8002528 <CDC_can_inj_receive_data+0x1c>
 8002526:	bd10      	pop	{r4, pc}
 8002528:	f043 0304 	orr.w	r3, r3, #4
 800252c:	f8c4 3310 	str.w	r3, [r4, #784]	; 0x310
 8002530:	e8bd 4010 	ldmia.w	sp!, {r4, lr}
 8002534:	f7ff beee 	b.w	8002314 <CDC_setInjectionMsg.constprop.0>
 8002538:	200081a8 	.word	0x200081a8

0800253c <CDC_initMessageInjection>:
 800253c:	b510      	push	{r4, lr}
 800253e:	4a14      	ldr	r2, [pc, #80]	; (8002590 <CDC_initMessageInjection+0x54>)
 8002540:	4b14      	ldr	r3, [pc, #80]	; (8002594 <CDC_initMessageInjection+0x58>)
 8002542:	7d51      	ldrb	r1, [r2, #21]
 8002544:	4814      	ldr	r0, [pc, #80]	; (8002598 <CDC_initMessageInjection+0x5c>)
 8002546:	f883 1024 	strb.w	r1, [r3, #36]	; 0x24
 800254a:	b082      	sub	sp, #8
 800254c:	2200      	movs	r2, #0
 800254e:	f04f 34ff 	mov.w	r4, #4294967295	; 0xffffffff
 8002552:	619c      	str	r4, [r3, #24]
 8002554:	f883 2025 	strb.w	r2, [r3, #37]	; 0x25
 8002558:	84da      	strh	r2, [r3, #38]	; 0x26
 800255a:	f7ff fd93 	bl	8002084 <init_dual_cc_buf>
 800255e:	4b0f      	ldr	r3, [pc, #60]	; (800259c <CDC_initMessageInjection+0x60>)
 8002560:	2104      	movs	r1, #4
 8002562:	fba3 3000 	umull	r3, r0, r3, r0
 8002566:	0902      	lsrs	r2, r0, #4
 8002568:	ea4f 7e10 	mov.w	lr, r0, lsr #28
 800256c:	ea4f 5c10 	mov.w	ip, r0, lsr #20
 8002570:	0b03      	lsrs	r3, r0, #12
 8002572:	eb0d 0001 	add.w	r0, sp, r1
 8002576:	f88d e004 	strb.w	lr, [sp, #4]
 800257a:	f88d c005 	strb.w	ip, [sp, #5]
 800257e:	f88d 3006 	strb.w	r3, [sp, #6]
 8002582:	f88d 2007 	strb.w	r2, [sp, #7]
 8002586:	f002 fa7b 	bl	8004a80 <USB_CDC_send_data>
 800258a:	b002      	add	sp, #8
 800258c:	bd10      	pop	{r4, pc}
 800258e:	bf00      	nop
 8002590:	20000054 	.word	0x20000054
 8002594:	20008180 	.word	0x20008180
 8002598:	200081a8 	.word	0x200081a8
 800259c:	aaaaaaab 	.word	0xaaaaaaab

080025a0 <TIM2_IRQHandler>:
 80025a0:	b530      	push	{r4, r5, lr}
 80025a2:	f04f 4480 	mov.w	r4, #1073741824	; 0x40000000
 80025a6:	b083      	sub	sp, #12
 80025a8:	6923      	ldr	r3, [r4, #16]
 80025aa:	07db      	lsls	r3, r3, #31
 80025ac:	d401      	bmi.n	80025b2 <TIM2_IRQHandler+0x12>
 80025ae:	b003      	add	sp, #12
 80025b0:	bd30      	pop	{r4, r5, pc}
 80025b2:	4d1b      	ldr	r5, [pc, #108]	; (8002620 <TIM2_IRQHandler+0x80>)
 80025b4:	4620      	mov	r0, r4
 80025b6:	f001 fc53 	bl	8003e60 <stopBasicTimer>
 80025ba:	6923      	ldr	r3, [r4, #16]
 80025bc:	7cea      	ldrb	r2, [r5, #19]
 80025be:	f023 0301 	bic.w	r3, r3, #1
 80025c2:	2a02      	cmp	r2, #2
 80025c4:	6123      	str	r3, [r4, #16]
 80025c6:	d013      	beq.n	80025f0 <TIM2_IRQHandler+0x50>
 80025c8:	4b16      	ldr	r3, [pc, #88]	; (8002624 <TIM2_IRQHandler+0x84>)
 80025ca:	7819      	ldrb	r1, [r3, #0]
 80025cc:	2940      	cmp	r1, #64	; 0x40
 80025ce:	d014      	beq.n	80025fa <TIM2_IRQHandler+0x5a>
 80025d0:	4815      	ldr	r0, [pc, #84]	; (8002628 <TIM2_IRQHandler+0x88>)
 80025d2:	f7ff fd63 	bl	800209c <deinit_dual_cc_buf>
 80025d6:	2302      	movs	r3, #2
 80025d8:	4620      	mov	r0, r4
 80025da:	74eb      	strb	r3, [r5, #19]
 80025dc:	f001 fc40 	bl	8003e60 <stopBasicTimer>
 80025e0:	2104      	movs	r1, #4
 80025e2:	f04f 33ff 	mov.w	r3, #4294967295	; 0xffffffff
 80025e6:	eb0d 0001 	add.w	r0, sp, r1
 80025ea:	9301      	str	r3, [sp, #4]
 80025ec:	f002 fa48 	bl	8004a80 <USB_CDC_send_data>
 80025f0:	b003      	add	sp, #12
 80025f2:	e8bd 4030 	ldmia.w	sp!, {r4, r5, lr}
 80025f6:	f7fe bd13 	b.w	8001020 <IWDG_reset>
 80025fa:	3a03      	subs	r2, #3
 80025fc:	2a01      	cmp	r2, #1
 80025fe:	bf98      	it	ls
 8002600:	480a      	ldrls	r0, [pc, #40]	; (800262c <TIM2_IRQHandler+0x8c>)
 8002602:	785a      	ldrb	r2, [r3, #1]
 8002604:	bf8a      	itet	hi
 8002606:	480a      	ldrhi	r0, [pc, #40]	; (8002630 <TIM2_IRQHandler+0x90>)
 8002608:	4b09      	ldrls	r3, [pc, #36]	; (8002630 <TIM2_IRQHandler+0x90>)
 800260a:	4b08      	ldrhi	r3, [pc, #32]	; (800262c <TIM2_IRQHandler+0x8c>)
 800260c:	4909      	ldr	r1, [pc, #36]	; (8002634 <TIM2_IRQHandler+0x94>)
 800260e:	2a01      	cmp	r2, #1
 8002610:	bf08      	it	eq
 8002612:	4618      	moveq	r0, r3
 8002614:	f7fe ff86 	bl	8001524 <Can_Transmit_Message>
 8002618:	f7ff fe7c 	bl	8002314 <CDC_setInjectionMsg.constprop.0>
 800261c:	e7e8      	b.n	80025f0 <TIM2_IRQHandler+0x50>
 800261e:	bf00      	nop
 8002620:	20000054 	.word	0x20000054
 8002624:	20008180 	.word	0x20008180
 8002628:	200081a8 	.word	0x200081a8
 800262c:	40006400 	.word	0x40006400
 8002630:	40006800 	.word	0x40006800
 8002634:	20008188 	.word	0x20008188

08002638 <can_override_get_status>:
 8002638:	4800      	ldr	r0, [pc, #0]	; (800263c <can_override_get_status+0x4>)
 800263a:	4770      	bx	lr
 800263c:	200084bc 	.word	0x200084bc

08002640 <can_override_get_dataptr>:
 8002640:	4800      	ldr	r0, [pc, #0]	; (8002644 <can_override_get_dataptr+0x4>)
 8002642:	4770      	bx	lr
 8002644:	200084bc 	.word	0x200084bc

08002648 <can_override_calibrate>:
 8002648:	8883      	ldrh	r3, [r0, #4]
 800264a:	2b01      	cmp	r3, #1
 800264c:	b570      	push	{r4, r5, r6, lr}
 800264e:	4604      	mov	r4, r0
 8002650:	f000 8083 	beq.w	800275a <can_override_calibrate+0x112>
 8002654:	8805      	ldrh	r5, [r0, #0]
 8002656:	ba6d      	rev16	r5, r5
 8002658:	b2ae      	uxth	r6, r5
 800265a:	f7fe fc09 	bl	8000e70 <vehicle_spd_id>
 800265e:	88a3      	ldrh	r3, [r4, #4]
 8002660:	1b86      	subs	r6, r0, r6
 8002662:	fab6 f686 	clz	r6, r6
 8002666:	2b01      	cmp	r3, #1
 8002668:	ea4f 1656 	mov.w	r6, r6, lsr #5
 800266c:	d051      	beq.n	8002712 <can_override_calibrate+0xca>
 800266e:	8825      	ldrh	r5, [r4, #0]
 8002670:	f7fe fc0a 	bl	8000e88 <vehicle_ext_id>
 8002674:	ba6d      	rev16	r5, r5
 8002676:	b2ad      	uxth	r5, r5
 8002678:	42a8      	cmp	r0, r5
 800267a:	d04f      	beq.n	800271c <can_override_calibrate+0xd4>
 800267c:	2e00      	cmp	r6, #0
 800267e:	d14d      	bne.n	800271c <can_override_calibrate+0xd4>
 8002680:	88a3      	ldrh	r3, [r4, #4]
 8002682:	2b01      	cmp	r3, #1
 8002684:	d067      	beq.n	8002756 <can_override_calibrate+0x10e>
 8002686:	8825      	ldrh	r5, [r4, #0]
 8002688:	ba6d      	rev16	r5, r5
 800268a:	b2ad      	uxth	r5, r5
 800268c:	f7fe fbf6 	bl	8000e7c <vehicle_odo_id>
 8002690:	1b45      	subs	r5, r0, r5
 8002692:	f7fe fbf3 	bl	8000e7c <vehicle_odo_id>
 8002696:	4606      	mov	r6, r0
 8002698:	f7fe fbea 	bl	8000e70 <vehicle_spd_id>
 800269c:	fab5 f585 	clz	r5, r5
 80026a0:	4286      	cmp	r6, r0
 80026a2:	ea4f 1555 	mov.w	r5, r5, lsr #5
 80026a6:	d000      	beq.n	80026aa <can_override_calibrate+0x62>
 80026a8:	b9b5      	cbnz	r5, 80026d8 <can_override_calibrate+0x90>
 80026aa:	88a3      	ldrh	r3, [r4, #4]
 80026ac:	2b01      	cmp	r3, #1
 80026ae:	d01e      	beq.n	80026ee <can_override_calibrate+0xa6>
 80026b0:	8825      	ldrh	r5, [r4, #0]
 80026b2:	f7fe fbd7 	bl	8000e64 <vehicle_crs_mlt>
 80026b6:	ba6d      	rev16	r5, r5
 80026b8:	b2ad      	uxth	r5, r5
 80026ba:	42a8      	cmp	r0, r5
 80026bc:	d01c      	beq.n	80026f8 <can_override_calibrate+0xb0>
 80026be:	f7fe fbbf 	bl	8000e40 <vehicle_model>
 80026c2:	2806      	cmp	r0, #6
 80026c4:	d003      	beq.n	80026ce <can_override_calibrate+0x86>
 80026c6:	f7fe fbbb 	bl	8000e40 <vehicle_model>
 80026ca:	280a      	cmp	r0, #10
 80026cc:	d118      	bne.n	8002700 <can_override_calibrate+0xb8>
 80026ce:	4620      	mov	r0, r4
 80026d0:	e8bd 4070 	ldmia.w	sp!, {r4, r5, r6, lr}
 80026d4:	f7fe bc06 	b.w	8000ee4 <vehicle_calibrate_ext>
 80026d8:	f7fe fbb8 	bl	8000e4c <vehicle_modes>
 80026dc:	07c3      	lsls	r3, r0, #31
 80026de:	d547      	bpl.n	8002770 <can_override_calibrate+0x128>
 80026e0:	2100      	movs	r1, #0
 80026e2:	4620      	mov	r0, r4
 80026e4:	f7fe fbe4 	bl	8000eb0 <vehicle_calibrate_odo>
 80026e8:	88a3      	ldrh	r3, [r4, #4]
 80026ea:	2b01      	cmp	r3, #1
 80026ec:	d1e0      	bne.n	80026b0 <can_override_calibrate+0x68>
 80026ee:	6825      	ldr	r5, [r4, #0]
 80026f0:	f7fe fbb8 	bl	8000e64 <vehicle_crs_mlt>
 80026f4:	42a8      	cmp	r0, r5
 80026f6:	d1e2      	bne.n	80026be <can_override_calibrate+0x76>
 80026f8:	4620      	mov	r0, r4
 80026fa:	f7fe fbe7 	bl	8000ecc <vehicle_calibrate_crs>
 80026fe:	e7de      	b.n	80026be <can_override_calibrate+0x76>
 8002700:	f7fe fb9e 	bl	8000e40 <vehicle_model>
 8002704:	280d      	cmp	r0, #13
 8002706:	d0e2      	beq.n	80026ce <can_override_calibrate+0x86>
 8002708:	f7fe fb9a 	bl	8000e40 <vehicle_model>
 800270c:	2818      	cmp	r0, #24
 800270e:	d0de      	beq.n	80026ce <can_override_calibrate+0x86>
 8002710:	bd70      	pop	{r4, r5, r6, pc}
 8002712:	6825      	ldr	r5, [r4, #0]
 8002714:	f7fe fbb8 	bl	8000e88 <vehicle_ext_id>
 8002718:	42a8      	cmp	r0, r5
 800271a:	d1af      	bne.n	800267c <can_override_calibrate+0x34>
 800271c:	f7fe fb96 	bl	8000e4c <vehicle_modes>
 8002720:	07c1      	lsls	r1, r0, #31
 8002722:	d521      	bpl.n	8002768 <can_override_calibrate+0x120>
 8002724:	2500      	movs	r5, #0
 8002726:	f7fe fb91 	bl	8000e4c <vehicle_modes>
 800272a:	0782      	lsls	r2, r0, #30
 800272c:	d517      	bpl.n	800275e <can_override_calibrate+0x116>
 800272e:	f7fe fb87 	bl	8000e40 <vehicle_model>
 8002732:	4605      	mov	r5, r0
 8002734:	f7fe fb84 	bl	8000e40 <vehicle_model>
 8002738:	2d04      	cmp	r5, #4
 800273a:	d01d      	beq.n	8002778 <can_override_calibrate+0x130>
 800273c:	2805      	cmp	r0, #5
 800273e:	d01b      	beq.n	8002778 <can_override_calibrate+0x130>
 8002740:	88e2      	ldrh	r2, [r4, #6]
 8002742:	2a00      	cmp	r2, #0
 8002744:	d09c      	beq.n	8002680 <can_override_calibrate+0x38>
 8002746:	212c      	movs	r1, #44	; 0x2c
 8002748:	f104 0008 	add.w	r0, r4, #8
 800274c:	f7fd fe1e 	bl	800038c <memset>
 8002750:	88a3      	ldrh	r3, [r4, #4]
 8002752:	2b01      	cmp	r3, #1
 8002754:	d197      	bne.n	8002686 <can_override_calibrate+0x3e>
 8002756:	6825      	ldr	r5, [r4, #0]
 8002758:	e798      	b.n	800268c <can_override_calibrate+0x44>
 800275a:	6806      	ldr	r6, [r0, #0]
 800275c:	e77d      	b.n	800265a <can_override_calibrate+0x12>
 800275e:	4629      	mov	r1, r5
 8002760:	4620      	mov	r0, r4
 8002762:	f7fe fb97 	bl	8000e94 <vehicle_calibrate_spd>
 8002766:	e78b      	b.n	8002680 <can_override_calibrate+0x38>
 8002768:	f7fe fb76 	bl	8000e58 <vehicle_odo_mlt>
 800276c:	4605      	mov	r5, r0
 800276e:	e7da      	b.n	8002726 <can_override_calibrate+0xde>
 8002770:	f7fe fb72 	bl	8000e58 <vehicle_odo_mlt>
 8002774:	4601      	mov	r1, r0
 8002776:	e7b4      	b.n	80026e2 <can_override_calibrate+0x9a>
 8002778:	f7fe fb62 	bl	8000e40 <vehicle_model>
 800277c:	2804      	cmp	r0, #4
 800277e:	d0df      	beq.n	8002740 <can_override_calibrate+0xf8>
 8002780:	f7fe fb5e 	bl	8000e40 <vehicle_model>
 8002784:	2805      	cmp	r0, #5
 8002786:	f47f af7b 	bne.w	8002680 <can_override_calibrate+0x38>
 800278a:	88e2      	ldrh	r2, [r4, #6]
 800278c:	2a00      	cmp	r2, #0
 800278e:	f43f af77 	beq.w	8002680 <can_override_calibrate+0x38>
 8002792:	219c      	movs	r1, #156	; 0x9c
 8002794:	f104 0008 	add.w	r0, r4, #8
 8002798:	f7fd fdf8 	bl	800038c <memset>
 800279c:	e770      	b.n	8002680 <can_override_calibrate+0x38>
 800279e:	bf00      	nop

080027a0 <can_override_proc_reverse_calibrate>:
 80027a0:	4770      	bx	lr
 80027a2:	bf00      	nop

080027a4 <can_override_process_filters>:
 80027a4:	e92d 4ff0 	stmdb	sp!, {r4, r5, r6, r7, r8, r9, sl, fp, lr}
 80027a8:	4b97      	ldr	r3, [pc, #604]	; (8002a08 <can_override_process_filters+0x264>)
 80027aa:	79db      	ldrb	r3, [r3, #7]
 80027ac:	b083      	sub	sp, #12
 80027ae:	2b02      	cmp	r3, #2
 80027b0:	9100      	str	r1, [sp, #0]
 80027b2:	d159      	bne.n	8002868 <can_override_process_filters+0xc4>
 80027b4:	f8df a254 	ldr.w	sl, [pc, #596]	; 8002a0c <can_override_process_filters+0x268>
 80027b8:	f8ba 3000 	ldrh.w	r3, [sl]
 80027bc:	2b00      	cmp	r3, #0
 80027be:	d157      	bne.n	8002870 <can_override_process_filters+0xcc>
 80027c0:	f8ba 8002 	ldrh.w	r8, [sl, #2]
 80027c4:	f1b8 0f00 	cmp.w	r8, #0
 80027c8:	d04e      	beq.n	8002868 <can_override_process_filters+0xc4>
 80027ca:	f8ba 3006 	ldrh.w	r3, [sl, #6]
 80027ce:	f8b0 9004 	ldrh.w	r9, [r0, #4]
 80027d2:	4c8e      	ldr	r4, [pc, #568]	; (8002a0c <can_override_process_filters+0x268>)
 80027d4:	9301      	str	r3, [sp, #4]
 80027d6:	f04f 0c00 	mov.w	ip, #0
 80027da:	2601      	movs	r6, #1
 80027dc:	e00d      	b.n	80027fa <can_override_process_filters+0x56>
 80027de:	8923      	ldrh	r3, [r4, #8]
 80027e0:	8802      	ldrh	r2, [r0, #0]
 80027e2:	ba5b      	rev16	r3, r3
 80027e4:	ba52      	rev16	r2, r2
 80027e6:	b29b      	uxth	r3, r3
 80027e8:	b292      	uxth	r2, r2
 80027ea:	429a      	cmp	r2, r3
 80027ec:	d00c      	beq.n	8002808 <can_override_process_filters+0x64>
 80027ee:	f10c 0c01 	add.w	ip, ip, #1
 80027f2:	45c4      	cmp	ip, r8
 80027f4:	f104 040c 	add.w	r4, r4, #12
 80027f8:	d036      	beq.n	8002868 <can_override_process_filters+0xc4>
 80027fa:	f1b9 0f01 	cmp.w	r9, #1
 80027fe:	d1ee      	bne.n	80027de <can_override_process_filters+0x3a>
 8002800:	68a3      	ldr	r3, [r4, #8]
 8002802:	6802      	ldr	r2, [r0, #0]
 8002804:	429a      	cmp	r2, r3
 8002806:	d1f2      	bne.n	80027ee <can_override_process_filters+0x4a>
 8002808:	9900      	ldr	r1, [sp, #0]
 800280a:	9a01      	ldr	r2, [sp, #4]
 800280c:	fa06 f30c 	lsl.w	r3, r6, ip
 8002810:	2901      	cmp	r1, #1
 8002812:	ea02 0203 	and.w	r2, r2, r3
 8002816:	d101      	bne.n	800281c <can_override_process_filters+0x78>
 8002818:	4293      	cmp	r3, r2
 800281a:	d025      	beq.n	8002868 <can_override_process_filters+0xc4>
 800281c:	9900      	ldr	r1, [sp, #0]
 800281e:	2902      	cmp	r1, #2
 8002820:	d101      	bne.n	8002826 <can_override_process_filters+0x82>
 8002822:	4293      	cmp	r3, r2
 8002824:	d120      	bne.n	8002868 <can_override_process_filters+0xc4>
 8002826:	88c7      	ldrh	r7, [r0, #6]
 8002828:	2f00      	cmp	r7, #0
 800282a:	d0e0      	beq.n	80027ee <can_override_process_filters+0x4a>
 800282c:	eb0a 030c 	add.w	r3, sl, ip
 8002830:	eb0c 0b4c 	add.w	fp, ip, ip, lsl #1
 8002834:	f893 e108 	ldrb.w	lr, [r3, #264]	; 0x108
 8002838:	eb0a 0b8b 	add.w	fp, sl, fp, lsl #2
 800283c:	2300      	movs	r3, #0
 800283e:	fa06 f203 	lsl.w	r2, r6, r3
 8002842:	1c59      	adds	r1, r3, #1
 8002844:	ea32 020e 	bics.w	r2, r2, lr
 8002848:	b2cd      	uxtb	r5, r1
 800284a:	d104      	bne.n	8002856 <can_override_process_filters+0xb2>
 800284c:	eb0b 0203 	add.w	r2, fp, r3
 8002850:	4403      	add	r3, r0
 8002852:	7b12      	ldrb	r2, [r2, #12]
 8002854:	721a      	strb	r2, [r3, #8]
 8002856:	42bd      	cmp	r5, r7
 8002858:	b2cb      	uxtb	r3, r1
 800285a:	d3f0      	bcc.n	800283e <can_override_process_filters+0x9a>
 800285c:	f10c 0c01 	add.w	ip, ip, #1
 8002860:	45c4      	cmp	ip, r8
 8002862:	f104 040c 	add.w	r4, r4, #12
 8002866:	d1c8      	bne.n	80027fa <can_override_process_filters+0x56>
 8002868:	2001      	movs	r0, #1
 800286a:	b003      	add	sp, #12
 800286c:	e8bd 8ff0 	ldmia.w	sp!, {r4, r5, r6, r7, r8, r9, sl, fp, pc}
 8002870:	8881      	ldrh	r1, [r0, #4]
 8002872:	f8ba 2004 	ldrh.w	r2, [sl, #4]
 8002876:	2901      	cmp	r1, #1
 8002878:	9900      	ldr	r1, [sp, #0]
 800287a:	f000 80c9 	beq.w	8002a10 <can_override_process_filters+0x26c>
 800287e:	2902      	cmp	r1, #2
 8002880:	f000 8160 	beq.w	8002b44 <can_override_process_filters+0x3a0>
 8002884:	2901      	cmp	r1, #1
 8002886:	d19b      	bne.n	80027c0 <can_override_process_filters+0x1c>
 8002888:	8801      	ldrh	r1, [r0, #0]
 800288a:	f8ba 40c8 	ldrh.w	r4, [sl, #200]	; 0xc8
 800288e:	ba49      	rev16	r1, r1
 8002890:	ba64      	rev16	r4, r4
 8002892:	b289      	uxth	r1, r1
 8002894:	b2a4      	uxth	r4, r4
 8002896:	428c      	cmp	r4, r1
 8002898:	d102      	bne.n	80028a0 <can_override_process_filters+0xfc>
 800289a:	07d7      	lsls	r7, r2, #31
 800289c:	f140 80b1 	bpl.w	8002a02 <can_override_process_filters+0x25e>
 80028a0:	2b01      	cmp	r3, #1
 80028a2:	d08d      	beq.n	80027c0 <can_override_process_filters+0x1c>
 80028a4:	f8ba 40cc 	ldrh.w	r4, [sl, #204]	; 0xcc
 80028a8:	ba64      	rev16	r4, r4
 80028aa:	b2a4      	uxth	r4, r4
 80028ac:	428c      	cmp	r4, r1
 80028ae:	d102      	bne.n	80028b6 <can_override_process_filters+0x112>
 80028b0:	0796      	lsls	r6, r2, #30
 80028b2:	f140 80a6 	bpl.w	8002a02 <can_override_process_filters+0x25e>
 80028b6:	2b02      	cmp	r3, #2
 80028b8:	d082      	beq.n	80027c0 <can_override_process_filters+0x1c>
 80028ba:	f8ba 40d0 	ldrh.w	r4, [sl, #208]	; 0xd0
 80028be:	ba64      	rev16	r4, r4
 80028c0:	b2a4      	uxth	r4, r4
 80028c2:	428c      	cmp	r4, r1
 80028c4:	d102      	bne.n	80028cc <can_override_process_filters+0x128>
 80028c6:	0755      	lsls	r5, r2, #29
 80028c8:	f140 809b 	bpl.w	8002a02 <can_override_process_filters+0x25e>
 80028cc:	2b03      	cmp	r3, #3
 80028ce:	f43f af77 	beq.w	80027c0 <can_override_process_filters+0x1c>
 80028d2:	f8ba 40d4 	ldrh.w	r4, [sl, #212]	; 0xd4
 80028d6:	ba64      	rev16	r4, r4
 80028d8:	b2a4      	uxth	r4, r4
 80028da:	428c      	cmp	r4, r1
 80028dc:	d102      	bne.n	80028e4 <can_override_process_filters+0x140>
 80028de:	0714      	lsls	r4, r2, #28
 80028e0:	f140 808f 	bpl.w	8002a02 <can_override_process_filters+0x25e>
 80028e4:	2b04      	cmp	r3, #4
 80028e6:	f43f af6b 	beq.w	80027c0 <can_override_process_filters+0x1c>
 80028ea:	f8ba 40d8 	ldrh.w	r4, [sl, #216]	; 0xd8
 80028ee:	ba64      	rev16	r4, r4
 80028f0:	b2a4      	uxth	r4, r4
 80028f2:	428c      	cmp	r4, r1
 80028f4:	d102      	bne.n	80028fc <can_override_process_filters+0x158>
 80028f6:	06d7      	lsls	r7, r2, #27
 80028f8:	f140 8083 	bpl.w	8002a02 <can_override_process_filters+0x25e>
 80028fc:	2b05      	cmp	r3, #5
 80028fe:	f43f af5f 	beq.w	80027c0 <can_override_process_filters+0x1c>
 8002902:	f8ba 40dc 	ldrh.w	r4, [sl, #220]	; 0xdc
 8002906:	ba64      	rev16	r4, r4
 8002908:	b2a4      	uxth	r4, r4
 800290a:	428c      	cmp	r4, r1
 800290c:	d101      	bne.n	8002912 <can_override_process_filters+0x16e>
 800290e:	0696      	lsls	r6, r2, #26
 8002910:	d577      	bpl.n	8002a02 <can_override_process_filters+0x25e>
 8002912:	2b06      	cmp	r3, #6
 8002914:	f43f af54 	beq.w	80027c0 <can_override_process_filters+0x1c>
 8002918:	f8ba 40e0 	ldrh.w	r4, [sl, #224]	; 0xe0
 800291c:	ba64      	rev16	r4, r4
 800291e:	b2a4      	uxth	r4, r4
 8002920:	428c      	cmp	r4, r1
 8002922:	d101      	bne.n	8002928 <can_override_process_filters+0x184>
 8002924:	0655      	lsls	r5, r2, #25
 8002926:	d56c      	bpl.n	8002a02 <can_override_process_filters+0x25e>
 8002928:	2b07      	cmp	r3, #7
 800292a:	f43f af49 	beq.w	80027c0 <can_override_process_filters+0x1c>
 800292e:	f8ba 40e4 	ldrh.w	r4, [sl, #228]	; 0xe4
 8002932:	ba64      	rev16	r4, r4
 8002934:	b2a4      	uxth	r4, r4
 8002936:	428c      	cmp	r4, r1
 8002938:	d101      	bne.n	800293e <can_override_process_filters+0x19a>
 800293a:	0614      	lsls	r4, r2, #24
 800293c:	d561      	bpl.n	8002a02 <can_override_process_filters+0x25e>
 800293e:	2b08      	cmp	r3, #8
 8002940:	f43f af3e 	beq.w	80027c0 <can_override_process_filters+0x1c>
 8002944:	f8ba 40e8 	ldrh.w	r4, [sl, #232]	; 0xe8
 8002948:	ba64      	rev16	r4, r4
 800294a:	b2a4      	uxth	r4, r4
 800294c:	428c      	cmp	r4, r1
 800294e:	d101      	bne.n	8002954 <can_override_process_filters+0x1b0>
 8002950:	05d7      	lsls	r7, r2, #23
 8002952:	d556      	bpl.n	8002a02 <can_override_process_filters+0x25e>
 8002954:	2b09      	cmp	r3, #9
 8002956:	f43f af33 	beq.w	80027c0 <can_override_process_filters+0x1c>
 800295a:	f8ba 40ec 	ldrh.w	r4, [sl, #236]	; 0xec
 800295e:	ba64      	rev16	r4, r4
 8002960:	b2a4      	uxth	r4, r4
 8002962:	428c      	cmp	r4, r1
 8002964:	d101      	bne.n	800296a <can_override_process_filters+0x1c6>
 8002966:	0596      	lsls	r6, r2, #22
 8002968:	d54b      	bpl.n	8002a02 <can_override_process_filters+0x25e>
 800296a:	2b0a      	cmp	r3, #10
 800296c:	f43f af28 	beq.w	80027c0 <can_override_process_filters+0x1c>
 8002970:	f8ba 40f0 	ldrh.w	r4, [sl, #240]	; 0xf0
 8002974:	ba64      	rev16	r4, r4
 8002976:	b2a4      	uxth	r4, r4
 8002978:	428c      	cmp	r4, r1
 800297a:	d101      	bne.n	8002980 <can_override_process_filters+0x1dc>
 800297c:	0555      	lsls	r5, r2, #21
 800297e:	d540      	bpl.n	8002a02 <can_override_process_filters+0x25e>
 8002980:	2b0b      	cmp	r3, #11
 8002982:	f43f af1d 	beq.w	80027c0 <can_override_process_filters+0x1c>
 8002986:	f8ba 40f4 	ldrh.w	r4, [sl, #244]	; 0xf4
 800298a:	ba64      	rev16	r4, r4
 800298c:	b2a4      	uxth	r4, r4
 800298e:	428c      	cmp	r4, r1
 8002990:	d101      	bne.n	8002996 <can_override_process_filters+0x1f2>
 8002992:	0514      	lsls	r4, r2, #20
 8002994:	d535      	bpl.n	8002a02 <can_override_process_filters+0x25e>
 8002996:	2b0c      	cmp	r3, #12
 8002998:	f43f af12 	beq.w	80027c0 <can_override_process_filters+0x1c>
 800299c:	f8ba 40f8 	ldrh.w	r4, [sl, #248]	; 0xf8
 80029a0:	ba64      	rev16	r4, r4
 80029a2:	b2a4      	uxth	r4, r4
 80029a4:	428c      	cmp	r4, r1
 80029a6:	d101      	bne.n	80029ac <can_override_process_filters+0x208>
 80029a8:	04d7      	lsls	r7, r2, #19
 80029aa:	d52a      	bpl.n	8002a02 <can_override_process_filters+0x25e>
 80029ac:	2b0d      	cmp	r3, #13
 80029ae:	f43f af07 	beq.w	80027c0 <can_override_process_filters+0x1c>
 80029b2:	f8ba 40fc 	ldrh.w	r4, [sl, #252]	; 0xfc
 80029b6:	ba64      	rev16	r4, r4
 80029b8:	b2a4      	uxth	r4, r4
 80029ba:	428c      	cmp	r4, r1
 80029bc:	d101      	bne.n	80029c2 <can_override_process_filters+0x21e>
 80029be:	0496      	lsls	r6, r2, #18
 80029c0:	d51f      	bpl.n	8002a02 <can_override_process_filters+0x25e>
 80029c2:	2b0e      	cmp	r3, #14
 80029c4:	f43f aefc 	beq.w	80027c0 <can_override_process_filters+0x1c>
 80029c8:	f8ba 4100 	ldrh.w	r4, [sl, #256]	; 0x100
 80029cc:	ba64      	rev16	r4, r4
 80029ce:	b2a4      	uxth	r4, r4
 80029d0:	428c      	cmp	r4, r1
 80029d2:	d101      	bne.n	80029d8 <can_override_process_filters+0x234>
 80029d4:	0455      	lsls	r5, r2, #17
 80029d6:	d514      	bpl.n	8002a02 <can_override_process_filters+0x25e>
 80029d8:	2b0f      	cmp	r3, #15
 80029da:	f43f aef1 	beq.w	80027c0 <can_override_process_filters+0x1c>
 80029de:	f8ba 4104 	ldrh.w	r4, [sl, #260]	; 0x104
 80029e2:	ba64      	rev16	r4, r4
 80029e4:	b2a4      	uxth	r4, r4
 80029e6:	428c      	cmp	r4, r1
 80029e8:	d101      	bne.n	80029ee <can_override_process_filters+0x24a>
 80029ea:	0bd2      	lsrs	r2, r2, #15
 80029ec:	d009      	beq.n	8002a02 <can_override_process_filters+0x25e>
 80029ee:	2b10      	cmp	r3, #16
 80029f0:	f43f aee6 	beq.w	80027c0 <can_override_process_filters+0x1c>
 80029f4:	f8ba 3108 	ldrh.w	r3, [sl, #264]	; 0x108
 80029f8:	ba5b      	rev16	r3, r3
 80029fa:	b29b      	uxth	r3, r3
 80029fc:	428b      	cmp	r3, r1
 80029fe:	f47f aedf 	bne.w	80027c0 <can_override_process_filters+0x1c>
 8002a02:	2000      	movs	r0, #0
 8002a04:	e731      	b.n	800286a <can_override_process_filters+0xc6>
 8002a06:	bf00      	nop
 8002a08:	20000054 	.word	0x20000054
 8002a0c:	200084bc 	.word	0x200084bc
 8002a10:	2902      	cmp	r1, #2
 8002a12:	f000 8159 	beq.w	8002cc8 <can_override_process_filters+0x524>
 8002a16:	2901      	cmp	r1, #1
 8002a18:	f47f aed2 	bne.w	80027c0 <can_override_process_filters+0x1c>
 8002a1c:	6801      	ldr	r1, [r0, #0]
 8002a1e:	f8da 40c8 	ldr.w	r4, [sl, #200]	; 0xc8
 8002a22:	428c      	cmp	r4, r1
 8002a24:	d101      	bne.n	8002a2a <can_override_process_filters+0x286>
 8002a26:	07d5      	lsls	r5, r2, #31
 8002a28:	d5eb      	bpl.n	8002a02 <can_override_process_filters+0x25e>
 8002a2a:	2b01      	cmp	r3, #1
 8002a2c:	f43f aec8 	beq.w	80027c0 <can_override_process_filters+0x1c>
 8002a30:	f8da 40cc 	ldr.w	r4, [sl, #204]	; 0xcc
 8002a34:	428c      	cmp	r4, r1
 8002a36:	d101      	bne.n	8002a3c <can_override_process_filters+0x298>
 8002a38:	0794      	lsls	r4, r2, #30
 8002a3a:	d5e2      	bpl.n	8002a02 <can_override_process_filters+0x25e>
 8002a3c:	2b02      	cmp	r3, #2
 8002a3e:	f43f aebf 	beq.w	80027c0 <can_override_process_filters+0x1c>
 8002a42:	f8da 40d0 	ldr.w	r4, [sl, #208]	; 0xd0
 8002a46:	428c      	cmp	r4, r1
 8002a48:	d101      	bne.n	8002a4e <can_override_process_filters+0x2aa>
 8002a4a:	0757      	lsls	r7, r2, #29
 8002a4c:	d5d9      	bpl.n	8002a02 <can_override_process_filters+0x25e>
 8002a4e:	2b03      	cmp	r3, #3
 8002a50:	f43f aeb6 	beq.w	80027c0 <can_override_process_filters+0x1c>
 8002a54:	f8da 40d4 	ldr.w	r4, [sl, #212]	; 0xd4
 8002a58:	428c      	cmp	r4, r1
 8002a5a:	d101      	bne.n	8002a60 <can_override_process_filters+0x2bc>
 8002a5c:	0716      	lsls	r6, r2, #28
 8002a5e:	d5d0      	bpl.n	8002a02 <can_override_process_filters+0x25e>
 8002a60:	2b04      	cmp	r3, #4
 8002a62:	f43f aead 	beq.w	80027c0 <can_override_process_filters+0x1c>
 8002a66:	f8da 40d8 	ldr.w	r4, [sl, #216]	; 0xd8
 8002a6a:	428c      	cmp	r4, r1
 8002a6c:	d101      	bne.n	8002a72 <can_override_process_filters+0x2ce>
 8002a6e:	06d5      	lsls	r5, r2, #27
 8002a70:	d5c7      	bpl.n	8002a02 <can_override_process_filters+0x25e>
 8002a72:	2b05      	cmp	r3, #5
 8002a74:	f43f aea4 	beq.w	80027c0 <can_override_process_filters+0x1c>
 8002a78:	f8da 40dc 	ldr.w	r4, [sl, #220]	; 0xdc
 8002a7c:	428c      	cmp	r4, r1
 8002a7e:	d101      	bne.n	8002a84 <can_override_process_filters+0x2e0>
 8002a80:	0694      	lsls	r4, r2, #26
 8002a82:	d5be      	bpl.n	8002a02 <can_override_process_filters+0x25e>
 8002a84:	2b06      	cmp	r3, #6
 8002a86:	f43f ae9b 	beq.w	80027c0 <can_override_process_filters+0x1c>
 8002a8a:	f8da 40e0 	ldr.w	r4, [sl, #224]	; 0xe0
 8002a8e:	428c      	cmp	r4, r1
 8002a90:	d101      	bne.n	8002a96 <can_override_process_filters+0x2f2>
 8002a92:	0657      	lsls	r7, r2, #25
 8002a94:	d5b5      	bpl.n	8002a02 <can_override_process_filters+0x25e>
 8002a96:	2b07      	cmp	r3, #7
 8002a98:	f43f ae92 	beq.w	80027c0 <can_override_process_filters+0x1c>
 8002a9c:	f8da 40e4 	ldr.w	r4, [sl, #228]	; 0xe4
 8002aa0:	428c      	cmp	r4, r1
 8002aa2:	d101      	bne.n	8002aa8 <can_override_process_filters+0x304>
 8002aa4:	0616      	lsls	r6, r2, #24
 8002aa6:	d5ac      	bpl.n	8002a02 <can_override_process_filters+0x25e>
 8002aa8:	2b08      	cmp	r3, #8
 8002aaa:	f43f ae89 	beq.w	80027c0 <can_override_process_filters+0x1c>
 8002aae:	f8da 40e8 	ldr.w	r4, [sl, #232]	; 0xe8
 8002ab2:	428c      	cmp	r4, r1
 8002ab4:	d101      	bne.n	8002aba <can_override_process_filters+0x316>
 8002ab6:	05d5      	lsls	r5, r2, #23
 8002ab8:	d5a3      	bpl.n	8002a02 <can_override_process_filters+0x25e>
 8002aba:	2b09      	cmp	r3, #9
 8002abc:	f43f ae80 	beq.w	80027c0 <can_override_process_filters+0x1c>
 8002ac0:	f8da 40ec 	ldr.w	r4, [sl, #236]	; 0xec
 8002ac4:	428c      	cmp	r4, r1
 8002ac6:	d101      	bne.n	8002acc <can_override_process_filters+0x328>
 8002ac8:	0594      	lsls	r4, r2, #22
 8002aca:	d59a      	bpl.n	8002a02 <can_override_process_filters+0x25e>
 8002acc:	2b0a      	cmp	r3, #10
 8002ace:	f43f ae77 	beq.w	80027c0 <can_override_process_filters+0x1c>
 8002ad2:	f8da 40f0 	ldr.w	r4, [sl, #240]	; 0xf0
 8002ad6:	428c      	cmp	r4, r1
 8002ad8:	d101      	bne.n	8002ade <can_override_process_filters+0x33a>
 8002ada:	0557      	lsls	r7, r2, #21
 8002adc:	d591      	bpl.n	8002a02 <can_override_process_filters+0x25e>
 8002ade:	2b0b      	cmp	r3, #11
 8002ae0:	f43f ae6e 	beq.w	80027c0 <can_override_process_filters+0x1c>
 8002ae4:	f8da 40f4 	ldr.w	r4, [sl, #244]	; 0xf4
 8002ae8:	428c      	cmp	r4, r1
 8002aea:	d101      	bne.n	8002af0 <can_override_process_filters+0x34c>
 8002aec:	0516      	lsls	r6, r2, #20
 8002aee:	d588      	bpl.n	8002a02 <can_override_process_filters+0x25e>
 8002af0:	2b0c      	cmp	r3, #12
 8002af2:	f43f ae65 	beq.w	80027c0 <can_override_process_filters+0x1c>
 8002af6:	f8da 40f8 	ldr.w	r4, [sl, #248]	; 0xf8
 8002afa:	428c      	cmp	r4, r1
 8002afc:	d102      	bne.n	8002b04 <can_override_process_filters+0x360>
 8002afe:	04d5      	lsls	r5, r2, #19
 8002b00:	f57f af7f 	bpl.w	8002a02 <can_override_process_filters+0x25e>
 8002b04:	2b0d      	cmp	r3, #13
 8002b06:	f43f ae5b 	beq.w	80027c0 <can_override_process_filters+0x1c>
 8002b0a:	f8da 40fc 	ldr.w	r4, [sl, #252]	; 0xfc
 8002b0e:	428c      	cmp	r4, r1
 8002b10:	d102      	bne.n	8002b18 <can_override_process_filters+0x374>
 8002b12:	0494      	lsls	r4, r2, #18
 8002b14:	f57f af75 	bpl.w	8002a02 <can_override_process_filters+0x25e>
 8002b18:	2b0e      	cmp	r3, #14
 8002b1a:	f43f ae51 	beq.w	80027c0 <can_override_process_filters+0x1c>
 8002b1e:	f8da 4100 	ldr.w	r4, [sl, #256]	; 0x100
 8002b22:	428c      	cmp	r4, r1
 8002b24:	d102      	bne.n	8002b2c <can_override_process_filters+0x388>
 8002b26:	0457      	lsls	r7, r2, #17
 8002b28:	f57f af6b 	bpl.w	8002a02 <can_override_process_filters+0x25e>
 8002b2c:	2b0f      	cmp	r3, #15
 8002b2e:	f43f ae47 	beq.w	80027c0 <can_override_process_filters+0x1c>
 8002b32:	f8da 3104 	ldr.w	r3, [sl, #260]	; 0x104
 8002b36:	428b      	cmp	r3, r1
 8002b38:	f47f ae42 	bne.w	80027c0 <can_override_process_filters+0x1c>
 8002b3c:	0bd3      	lsrs	r3, r2, #15
 8002b3e:	f47f ae3f 	bne.w	80027c0 <can_override_process_filters+0x1c>
 8002b42:	e75e      	b.n	8002a02 <can_override_process_filters+0x25e>
 8002b44:	8801      	ldrh	r1, [r0, #0]
 8002b46:	f8ba 40c8 	ldrh.w	r4, [sl, #200]	; 0xc8
 8002b4a:	ba49      	rev16	r1, r1
 8002b4c:	ba64      	rev16	r4, r4
 8002b4e:	b289      	uxth	r1, r1
 8002b50:	b2a4      	uxth	r4, r4
 8002b52:	428c      	cmp	r4, r1
 8002b54:	d102      	bne.n	8002b5c <can_override_process_filters+0x3b8>
 8002b56:	07d4      	lsls	r4, r2, #31
 8002b58:	f53f af53 	bmi.w	8002a02 <can_override_process_filters+0x25e>
 8002b5c:	2b01      	cmp	r3, #1
 8002b5e:	f43f ae2f 	beq.w	80027c0 <can_override_process_filters+0x1c>
 8002b62:	f8ba 40cc 	ldrh.w	r4, [sl, #204]	; 0xcc
 8002b66:	ba64      	rev16	r4, r4
 8002b68:	b2a4      	uxth	r4, r4
 8002b6a:	428c      	cmp	r4, r1
 8002b6c:	d102      	bne.n	8002b74 <can_override_process_filters+0x3d0>
 8002b6e:	0797      	lsls	r7, r2, #30
 8002b70:	f53f af47 	bmi.w	8002a02 <can_override_process_filters+0x25e>
 8002b74:	2b02      	cmp	r3, #2
 8002b76:	f43f ae23 	beq.w	80027c0 <can_override_process_filters+0x1c>
 8002b7a:	f8ba 40d0 	ldrh.w	r4, [sl, #208]	; 0xd0
 8002b7e:	ba64      	rev16	r4, r4
 8002b80:	b2a4      	uxth	r4, r4
 8002b82:	428c      	cmp	r4, r1
 8002b84:	d102      	bne.n	8002b8c <can_override_process_filters+0x3e8>
 8002b86:	0756      	lsls	r6, r2, #29
 8002b88:	f53f af3b 	bmi.w	8002a02 <can_override_process_filters+0x25e>
 8002b8c:	2b03      	cmp	r3, #3
 8002b8e:	f43f ae17 	beq.w	80027c0 <can_override_process_filters+0x1c>
 8002b92:	f8ba 40d4 	ldrh.w	r4, [sl, #212]	; 0xd4
 8002b96:	ba64      	rev16	r4, r4
 8002b98:	b2a4      	uxth	r4, r4
 8002b9a:	428c      	cmp	r4, r1
 8002b9c:	d102      	bne.n	8002ba4 <can_override_process_filters+0x400>
 8002b9e:	0715      	lsls	r5, r2, #28
 8002ba0:	f53f af2f 	bmi.w	8002a02 <can_override_process_filters+0x25e>
 8002ba4:	2b04      	cmp	r3, #4
 8002ba6:	f43f ae0b 	beq.w	80027c0 <can_override_process_filters+0x1c>
 8002baa:	f8ba 40d8 	ldrh.w	r4, [sl, #216]	; 0xd8
 8002bae:	ba64      	rev16	r4, r4
 8002bb0:	b2a4      	uxth	r4, r4
 8002bb2:	428c      	cmp	r4, r1
 8002bb4:	d102      	bne.n	8002bbc <can_override_process_filters+0x418>
 8002bb6:	06d4      	lsls	r4, r2, #27
 8002bb8:	f53f af23 	bmi.w	8002a02 <can_override_process_filters+0x25e>
 8002bbc:	2b05      	cmp	r3, #5
 8002bbe:	f43f adff 	beq.w	80027c0 <can_override_process_filters+0x1c>
 8002bc2:	f8ba 40dc 	ldrh.w	r4, [sl, #220]	; 0xdc
 8002bc6:	ba64      	rev16	r4, r4
 8002bc8:	b2a4      	uxth	r4, r4
 8002bca:	428c      	cmp	r4, r1
 8002bcc:	d102      	bne.n	8002bd4 <can_override_process_filters+0x430>
 8002bce:	0697      	lsls	r7, r2, #26
 8002bd0:	f53f af17 	bmi.w	8002a02 <can_override_process_filters+0x25e>
 8002bd4:	2b06      	cmp	r3, #6
 8002bd6:	f43f adf3 	beq.w	80027c0 <can_override_process_filters+0x1c>
 8002bda:	f8ba 40e0 	ldrh.w	r4, [sl, #224]	; 0xe0
 8002bde:	ba64      	rev16	r4, r4
 8002be0:	b2a4      	uxth	r4, r4
 8002be2:	428c      	cmp	r4, r1
 8002be4:	d102      	bne.n	8002bec <can_override_process_filters+0x448>
 8002be6:	0656      	lsls	r6, r2, #25
 8002be8:	f53f af0b 	bmi.w	8002a02 <can_override_process_filters+0x25e>
 8002bec:	2b07      	cmp	r3, #7
 8002bee:	f43f ade7 	beq.w	80027c0 <can_override_process_filters+0x1c>
 8002bf2:	f8ba 40e4 	ldrh.w	r4, [sl, #228]	; 0xe4
 8002bf6:	ba64      	rev16	r4, r4
 8002bf8:	b2a4      	uxth	r4, r4
 8002bfa:	428c      	cmp	r4, r1
 8002bfc:	d102      	bne.n	8002c04 <can_override_process_filters+0x460>
 8002bfe:	0615      	lsls	r5, r2, #24
 8002c00:	f53f aeff 	bmi.w	8002a02 <can_override_process_filters+0x25e>
 8002c04:	2b08      	cmp	r3, #8
 8002c06:	f43f addb 	beq.w	80027c0 <can_override_process_filters+0x1c>
 8002c0a:	f8ba 40e8 	ldrh.w	r4, [sl, #232]	; 0xe8
 8002c0e:	ba64      	rev16	r4, r4
 8002c10:	b2a4      	uxth	r4, r4
 8002c12:	428c      	cmp	r4, r1
 8002c14:	d102      	bne.n	8002c1c <can_override_process_filters+0x478>
 8002c16:	05d4      	lsls	r4, r2, #23
 8002c18:	f53f aef3 	bmi.w	8002a02 <can_override_process_filters+0x25e>
 8002c1c:	2b09      	cmp	r3, #9
 8002c1e:	f43f adcf 	beq.w	80027c0 <can_override_process_filters+0x1c>
 8002c22:	f8ba 40ec 	ldrh.w	r4, [sl, #236]	; 0xec
 8002c26:	ba64      	rev16	r4, r4
 8002c28:	b2a4      	uxth	r4, r4
 8002c2a:	428c      	cmp	r4, r1
 8002c2c:	d102      	bne.n	8002c34 <can_override_process_filters+0x490>
 8002c2e:	0597      	lsls	r7, r2, #22
 8002c30:	f53f aee7 	bmi.w	8002a02 <can_override_process_filters+0x25e>
 8002c34:	2b0a      	cmp	r3, #10
 8002c36:	f43f adc3 	beq.w	80027c0 <can_override_process_filters+0x1c>
 8002c3a:	f8ba 40f0 	ldrh.w	r4, [sl, #240]	; 0xf0
 8002c3e:	ba64      	rev16	r4, r4
 8002c40:	b2a4      	uxth	r4, r4
 8002c42:	428c      	cmp	r4, r1
 8002c44:	d102      	bne.n	8002c4c <can_override_process_filters+0x4a8>
 8002c46:	0556      	lsls	r6, r2, #21
 8002c48:	f53f aedb 	bmi.w	8002a02 <can_override_process_filters+0x25e>
 8002c4c:	2b0b      	cmp	r3, #11
 8002c4e:	f43f adb7 	beq.w	80027c0 <can_override_process_filters+0x1c>
 8002c52:	f8ba 40f4 	ldrh.w	r4, [sl, #244]	; 0xf4
 8002c56:	ba64      	rev16	r4, r4
 8002c58:	b2a4      	uxth	r4, r4
 8002c5a:	428c      	cmp	r4, r1
 8002c5c:	d102      	bne.n	8002c64 <can_override_process_filters+0x4c0>
 8002c5e:	0515      	lsls	r5, r2, #20
 8002c60:	f53f aecf 	bmi.w	8002a02 <can_override_process_filters+0x25e>
 8002c64:	2b0c      	cmp	r3, #12
 8002c66:	f43f adab 	beq.w	80027c0 <can_override_process_filters+0x1c>
 8002c6a:	f8ba 40f8 	ldrh.w	r4, [sl, #248]	; 0xf8
 8002c6e:	ba64      	rev16	r4, r4
 8002c70:	b2a4      	uxth	r4, r4
 8002c72:	428c      	cmp	r4, r1
 8002c74:	d102      	bne.n	8002c7c <can_override_process_filters+0x4d8>
 8002c76:	04d4      	lsls	r4, r2, #19
 8002c78:	f53f aec3 	bmi.w	8002a02 <can_override_process_filters+0x25e>
 8002c7c:	2b0d      	cmp	r3, #13
 8002c7e:	f43f ad9f 	beq.w	80027c0 <can_override_process_filters+0x1c>
 8002c82:	f8ba 40fc 	ldrh.w	r4, [sl, #252]	; 0xfc
 8002c86:	ba64      	rev16	r4, r4
 8002c88:	b2a4      	uxth	r4, r4
 8002c8a:	428c      	cmp	r4, r1
 8002c8c:	d102      	bne.n	8002c94 <can_override_process_filters+0x4f0>
 8002c8e:	0497      	lsls	r7, r2, #18
 8002c90:	f53f aeb7 	bmi.w	8002a02 <can_override_process_filters+0x25e>
 8002c94:	2b0e      	cmp	r3, #14
 8002c96:	f43f ad93 	beq.w	80027c0 <can_override_process_filters+0x1c>
 8002c9a:	f8ba 4100 	ldrh.w	r4, [sl, #256]	; 0x100
 8002c9e:	ba64      	rev16	r4, r4
 8002ca0:	b2a4      	uxth	r4, r4
 8002ca2:	428c      	cmp	r4, r1
 8002ca4:	d102      	bne.n	8002cac <can_override_process_filters+0x508>
 8002ca6:	0456      	lsls	r6, r2, #17
 8002ca8:	f53f aeab 	bmi.w	8002a02 <can_override_process_filters+0x25e>
 8002cac:	2b0f      	cmp	r3, #15
 8002cae:	f43f ad87 	beq.w	80027c0 <can_override_process_filters+0x1c>
 8002cb2:	f8ba 3104 	ldrh.w	r3, [sl, #260]	; 0x104
 8002cb6:	ba5b      	rev16	r3, r3
 8002cb8:	b29b      	uxth	r3, r3
 8002cba:	428b      	cmp	r3, r1
 8002cbc:	f47f ad80 	bne.w	80027c0 <can_override_process_filters+0x1c>
 8002cc0:	0bd3      	lsrs	r3, r2, #15
 8002cc2:	f43f ad7d 	beq.w	80027c0 <can_override_process_filters+0x1c>
 8002cc6:	e69c      	b.n	8002a02 <can_override_process_filters+0x25e>
 8002cc8:	6801      	ldr	r1, [r0, #0]
 8002cca:	f8da 40c8 	ldr.w	r4, [sl, #200]	; 0xc8
 8002cce:	428c      	cmp	r4, r1
 8002cd0:	d102      	bne.n	8002cd8 <can_override_process_filters+0x534>
 8002cd2:	07d6      	lsls	r6, r2, #31
 8002cd4:	f53f ae95 	bmi.w	8002a02 <can_override_process_filters+0x25e>
 8002cd8:	2b01      	cmp	r3, #1
 8002cda:	f43f ad71 	beq.w	80027c0 <can_override_process_filters+0x1c>
 8002cde:	f8da 40cc 	ldr.w	r4, [sl, #204]	; 0xcc
 8002ce2:	428c      	cmp	r4, r1
 8002ce4:	d102      	bne.n	8002cec <can_override_process_filters+0x548>
 8002ce6:	0795      	lsls	r5, r2, #30
 8002ce8:	f53f ae8b 	bmi.w	8002a02 <can_override_process_filters+0x25e>
 8002cec:	2b02      	cmp	r3, #2
 8002cee:	f43f ad67 	beq.w	80027c0 <can_override_process_filters+0x1c>
 8002cf2:	f8da 40d0 	ldr.w	r4, [sl, #208]	; 0xd0
 8002cf6:	428c      	cmp	r4, r1
 8002cf8:	d102      	bne.n	8002d00 <can_override_process_filters+0x55c>
 8002cfa:	0754      	lsls	r4, r2, #29
 8002cfc:	f53f ae81 	bmi.w	8002a02 <can_override_process_filters+0x25e>
 8002d00:	2b03      	cmp	r3, #3
 8002d02:	f43f ad5d 	beq.w	80027c0 <can_override_process_filters+0x1c>
 8002d06:	f8da 40d4 	ldr.w	r4, [sl, #212]	; 0xd4
 8002d0a:	428c      	cmp	r4, r1
 8002d0c:	d102      	bne.n	8002d14 <can_override_process_filters+0x570>
 8002d0e:	0717      	lsls	r7, r2, #28
 8002d10:	f53f ae77 	bmi.w	8002a02 <can_override_process_filters+0x25e>
 8002d14:	2b04      	cmp	r3, #4
 8002d16:	f43f ad53 	beq.w	80027c0 <can_override_process_filters+0x1c>
 8002d1a:	f8da 40d8 	ldr.w	r4, [sl, #216]	; 0xd8
 8002d1e:	428c      	cmp	r4, r1
 8002d20:	d102      	bne.n	8002d28 <can_override_process_filters+0x584>
 8002d22:	06d6      	lsls	r6, r2, #27
 8002d24:	f53f ae6d 	bmi.w	8002a02 <can_override_process_filters+0x25e>
 8002d28:	2b05      	cmp	r3, #5
 8002d2a:	f43f ad49 	beq.w	80027c0 <can_override_process_filters+0x1c>
 8002d2e:	f8da 40dc 	ldr.w	r4, [sl, #220]	; 0xdc
 8002d32:	428c      	cmp	r4, r1
 8002d34:	d102      	bne.n	8002d3c <can_override_process_filters+0x598>
 8002d36:	0695      	lsls	r5, r2, #26
 8002d38:	f53f ae63 	bmi.w	8002a02 <can_override_process_filters+0x25e>
 8002d3c:	2b06      	cmp	r3, #6
 8002d3e:	f43f ad3f 	beq.w	80027c0 <can_override_process_filters+0x1c>
 8002d42:	f8da 40e0 	ldr.w	r4, [sl, #224]	; 0xe0
 8002d46:	428c      	cmp	r4, r1
 8002d48:	d102      	bne.n	8002d50 <can_override_process_filters+0x5ac>
 8002d4a:	0654      	lsls	r4, r2, #25
 8002d4c:	f53f ae59 	bmi.w	8002a02 <can_override_process_filters+0x25e>
 8002d50:	2b07      	cmp	r3, #7
 8002d52:	f43f ad35 	beq.w	80027c0 <can_override_process_filters+0x1c>
 8002d56:	f8da 40e4 	ldr.w	r4, [sl, #228]	; 0xe4
 8002d5a:	428c      	cmp	r4, r1
 8002d5c:	d102      	bne.n	8002d64 <can_override_process_filters+0x5c0>
 8002d5e:	0617      	lsls	r7, r2, #24
 8002d60:	f53f ae4f 	bmi.w	8002a02 <can_override_process_filters+0x25e>
 8002d64:	2b08      	cmp	r3, #8
 8002d66:	f43f ad2b 	beq.w	80027c0 <can_override_process_filters+0x1c>
 8002d6a:	f8da 40e8 	ldr.w	r4, [sl, #232]	; 0xe8
 8002d6e:	428c      	cmp	r4, r1
 8002d70:	d102      	bne.n	8002d78 <can_override_process_filters+0x5d4>
 8002d72:	05d6      	lsls	r6, r2, #23
 8002d74:	f53f ae45 	bmi.w	8002a02 <can_override_process_filters+0x25e>
 8002d78:	2b09      	cmp	r3, #9
 8002d7a:	f43f ad21 	beq.w	80027c0 <can_override_process_filters+0x1c>
 8002d7e:	f8da 40ec 	ldr.w	r4, [sl, #236]	; 0xec
 8002d82:	428c      	cmp	r4, r1
 8002d84:	d102      	bne.n	8002d8c <can_override_process_filters+0x5e8>
 8002d86:	0595      	lsls	r5, r2, #22
 8002d88:	f53f ae3b 	bmi.w	8002a02 <can_override_process_filters+0x25e>
 8002d8c:	2b0a      	cmp	r3, #10
 8002d8e:	f43f ad17 	beq.w	80027c0 <can_override_process_filters+0x1c>
 8002d92:	f8da 40f0 	ldr.w	r4, [sl, #240]	; 0xf0
 8002d96:	428c      	cmp	r4, r1
 8002d98:	d102      	bne.n	8002da0 <can_override_process_filters+0x5fc>
 8002d9a:	0554      	lsls	r4, r2, #21
 8002d9c:	f53f ae31 	bmi.w	8002a02 <can_override_process_filters+0x25e>
 8002da0:	2b0b      	cmp	r3, #11
 8002da2:	f43f ad0d 	beq.w	80027c0 <can_override_process_filters+0x1c>
 8002da6:	f8da 40f4 	ldr.w	r4, [sl, #244]	; 0xf4
 8002daa:	428c      	cmp	r4, r1
 8002dac:	d102      	bne.n	8002db4 <can_override_process_filters+0x610>
 8002dae:	0517      	lsls	r7, r2, #20
 8002db0:	f53f ae27 	bmi.w	8002a02 <can_override_process_filters+0x25e>
 8002db4:	2b0c      	cmp	r3, #12
 8002db6:	f43f ad03 	beq.w	80027c0 <can_override_process_filters+0x1c>
 8002dba:	f8da 40f8 	ldr.w	r4, [sl, #248]	; 0xf8
 8002dbe:	428c      	cmp	r4, r1
 8002dc0:	d102      	bne.n	8002dc8 <can_override_process_filters+0x624>
 8002dc2:	04d6      	lsls	r6, r2, #19
 8002dc4:	f53f ae1d 	bmi.w	8002a02 <can_override_process_filters+0x25e>
 8002dc8:	2b0d      	cmp	r3, #13
 8002dca:	f43f acf9 	beq.w	80027c0 <can_override_process_filters+0x1c>
 8002dce:	f8da 40fc 	ldr.w	r4, [sl, #252]	; 0xfc
 8002dd2:	428c      	cmp	r4, r1
 8002dd4:	d102      	bne.n	8002ddc <can_override_process_filters+0x638>
 8002dd6:	0495      	lsls	r5, r2, #18
 8002dd8:	f53f ae13 	bmi.w	8002a02 <can_override_process_filters+0x25e>
 8002ddc:	2b0e      	cmp	r3, #14
 8002dde:	f43f acef 	beq.w	80027c0 <can_override_process_filters+0x1c>
 8002de2:	f8da 4100 	ldr.w	r4, [sl, #256]	; 0x100
 8002de6:	428c      	cmp	r4, r1
 8002de8:	d102      	bne.n	8002df0 <can_override_process_filters+0x64c>
 8002dea:	0454      	lsls	r4, r2, #17
 8002dec:	f53f ae09 	bmi.w	8002a02 <can_override_process_filters+0x25e>
 8002df0:	2b0f      	cmp	r3, #15
 8002df2:	f43f ace5 	beq.w	80027c0 <can_override_process_filters+0x1c>
 8002df6:	f8da 3104 	ldr.w	r3, [sl, #260]	; 0x104
 8002dfa:	428b      	cmp	r3, r1
 8002dfc:	f43f af60 	beq.w	8002cc0 <can_override_process_filters+0x51c>
 8002e00:	e4de      	b.n	80027c0 <can_override_process_filters+0x1c>
 8002e02:	bf00      	nop

08002e04 <can_receive_and_usb_transmit_msg>:
 8002e04:	e92d 41f0 	stmdb	sp!, {r4, r5, r6, r7, r8, lr}
 8002e08:	461c      	mov	r4, r3
 8002e0a:	4688      	mov	r8, r1
 8002e0c:	4605      	mov	r5, r0
 8002e0e:	4617      	mov	r7, r2
 8002e10:	f7fd fbb0 	bl	8000574 <get_device_model_ptr>
 8002e14:	9b06      	ldr	r3, [sp, #24]
 8002e16:	6063      	str	r3, [r4, #4]
 8002e18:	f8d8 3024 	ldr.w	r3, [r8, #36]	; 0x24
 8002e1c:	f3c3 034e 	ubfx	r3, r3, #1, #15
 8002e20:	8063      	strh	r3, [r4, #2]
 8002e22:	4b17      	ldr	r3, [pc, #92]	; (8002e80 <can_receive_and_usb_transmit_msg+0x7c>)
 8002e24:	429d      	cmp	r5, r3
 8002e26:	bf0c      	ite	eq
 8002e28:	2301      	moveq	r3, #1
 8002e2a:	2302      	movne	r3, #2
 8002e2c:	4606      	mov	r6, r0
 8002e2e:	7063      	strb	r3, [r4, #1]
 8002e30:	2340      	movs	r3, #64	; 0x40
 8002e32:	7023      	strb	r3, [r4, #0]
 8002e34:	f104 0208 	add.w	r2, r4, #8
 8002e38:	4639      	mov	r1, r7
 8002e3a:	4628      	mov	r0, r5
 8002e3c:	f7fe fb90 	bl	8001560 <Can_Recieve_StdMessage>
 8002e40:	7db3      	ldrb	r3, [r6, #22]
 8002e42:	2b01      	cmp	r3, #1
 8002e44:	d10d      	bne.n	8002e62 <can_receive_and_usb_transmit_msg+0x5e>
 8002e46:	89a3      	ldrh	r3, [r4, #12]
 8002e48:	2b01      	cmp	r3, #1
 8002e4a:	d016      	beq.n	8002e7a <can_receive_and_usb_transmit_msg+0x76>
 8002e4c:	8923      	ldrh	r3, [r4, #8]
 8002e4e:	ba5b      	rev16	r3, r3
 8002e50:	b29b      	uxth	r3, r3
 8002e52:	f8d6 2017 	ldr.w	r2, [r6, #23]
 8002e56:	429a      	cmp	r2, r3
 8002e58:	d20c      	bcs.n	8002e74 <can_receive_and_usb_transmit_msg+0x70>
 8002e5a:	f8d6 201b 	ldr.w	r2, [r6, #27]
 8002e5e:	429a      	cmp	r2, r3
 8002e60:	d908      	bls.n	8002e74 <can_receive_and_usb_transmit_msg+0x70>
 8002e62:	2118      	movs	r1, #24
 8002e64:	4620      	mov	r0, r4
 8002e66:	f001 fe0b 	bl	8004a80 <USB_CDC_send_data>
 8002e6a:	3800      	subs	r0, #0
 8002e6c:	bf18      	it	ne
 8002e6e:	2001      	movne	r0, #1
 8002e70:	e8bd 81f0 	ldmia.w	sp!, {r4, r5, r6, r7, r8, pc}
 8002e74:	2001      	movs	r0, #1
 8002e76:	e8bd 81f0 	ldmia.w	sp!, {r4, r5, r6, r7, r8, pc}
 8002e7a:	68a3      	ldr	r3, [r4, #8]
 8002e7c:	e7e9      	b.n	8002e52 <can_receive_and_usb_transmit_msg+0x4e>
 8002e7e:	bf00      	nop
 8002e80:	40006400 	.word	0x40006400

08002e84 <cmd_memchip_base_process>:
 8002e84:	6803      	ldr	r3, [r0, #0]
 8002e86:	3b01      	subs	r3, #1
 8002e88:	b570      	push	{r4, r5, r6, lr}
 8002e8a:	4604      	mov	r4, r0
 8002e8c:	2b12      	cmp	r3, #18
 8002e8e:	d80b      	bhi.n	8002ea8 <cmd_memchip_base_process+0x24>
 8002e90:	e8df f003 	tbb	[pc, r3]
 8002e94:	0a0a1f2e 	.word	0x0a0a1f2e
 8002e98:	35592611 	.word	0x35592611
 8002e9c:	0a0a0a0a 	.word	0x0a0a0a0a
 8002ea0:	420a0a0a 	.word	0x420a0a0a
 8002ea4:	0a0a      	.short	0x0a0a
 8002ea6:	11          	.byte	0x11
 8002ea7:	00          	.byte	0x00
 8002ea8:	2002      	movs	r0, #2
 8002eaa:	f000 fc3b 	bl	8003724 <protocol_response>
 8002eae:	e8bd 4070 	ldmia.w	sp!, {r4, r5, r6, lr}
 8002eb2:	f000 baf1 	b.w	8003498 <el_reset_state>
 8002eb6:	f000 fa55 	bl	8003364 <extract_length_from_cmd>
 8002eba:	4605      	mov	r5, r0
 8002ebc:	4620      	mov	r0, r4
 8002ebe:	f000 fa1d 	bl	80032fc <extract_address_from_cmd>
 8002ec2:	4601      	mov	r1, r0
 8002ec4:	4628      	mov	r0, r5
 8002ec6:	f000 f9db 	bl	8003280 <read_mem_data_and_usb_send>
 8002eca:	e8bd 4070 	ldmia.w	sp!, {r4, r5, r6, lr}
 8002ece:	f000 bae3 	b.w	8003498 <el_reset_state>
 8002ed2:	f000 fae1 	bl	8003498 <el_reset_state>
 8002ed6:	e8bd 4070 	ldmia.w	sp!, {r4, r5, r6, lr}
 8002eda:	2001      	movs	r0, #1
 8002edc:	f000 bc22 	b.w	8003724 <protocol_response>
 8002ee0:	f000 fa52 	bl	8003388 <erase_sector>
 8002ee4:	f000 fc1e 	bl	8003724 <protocol_response>
 8002ee8:	e8bd 4070 	ldmia.w	sp!, {r4, r5, r6, lr}
 8002eec:	f000 bad4 	b.w	8003498 <el_reset_state>
 8002ef0:	2000      	movs	r0, #0
 8002ef2:	f000 fc17 	bl	8003724 <protocol_response>
 8002ef6:	e8bd 4070 	ldmia.w	sp!, {r4, r5, r6, lr}
 8002efa:	f000 bacd 	b.w	8003498 <el_reset_state>
 8002efe:	f000 f9fd 	bl	80032fc <extract_address_from_cmd>
 8002f02:	6862      	ldr	r2, [r4, #4]
 8002f04:	f104 0108 	add.w	r1, r4, #8
 8002f08:	f000 fe9a 	bl	8003c40 <memchip_write>
 8002f0c:	f000 fc0a 	bl	8003724 <protocol_response>
 8002f10:	e8bd 4070 	ldmia.w	sp!, {r4, r5, r6, lr}
 8002f14:	f000 bac0 	b.w	8003498 <el_reset_state>
 8002f18:	f000 f9f0 	bl	80032fc <extract_address_from_cmd>
 8002f1c:	4606      	mov	r6, r0
 8002f1e:	4620      	mov	r0, r4
 8002f20:	f000 fa20 	bl	8003364 <extract_length_from_cmd>
 8002f24:	4605      	mov	r5, r0
 8002f26:	b138      	cbz	r0, 8002f38 <cmd_memchip_base_process+0xb4>
 8002f28:	2400      	movs	r4, #0
 8002f2a:	1930      	adds	r0, r6, r4
 8002f2c:	f504 5480 	add.w	r4, r4, #4096	; 0x1000
 8002f30:	f000 fe98 	bl	8003c64 <memchip_erase_block_within_address>
 8002f34:	42a5      	cmp	r5, r4
 8002f36:	d8f8      	bhi.n	8002f2a <cmd_memchip_base_process+0xa6>
 8002f38:	2001      	movs	r0, #1
 8002f3a:	f000 fbf3 	bl	8003724 <protocol_response>
 8002f3e:	e8bd 4070 	ldmia.w	sp!, {r4, r5, r6, lr}
 8002f42:	f000 baa9 	b.w	8003498 <el_reset_state>
 8002f46:	f000 fdff 	bl	8003b48 <erase_chip_memchip>
 8002f4a:	f000 fbeb 	bl	8003724 <protocol_response>
 8002f4e:	e8bd 4070 	ldmia.w	sp!, {r4, r5, r6, lr}
 8002f52:	f000 baa1 	b.w	8003498 <el_reset_state>
 8002f56:	bf00      	nop

08002f58 <process_raw_cmd>:
 8002f58:	4a55      	ldr	r2, [pc, #340]	; (80030b0 <process_raw_cmd+0x158>)
 8002f5a:	6803      	ldr	r3, [r0, #0]
 8002f5c:	4293      	cmp	r3, r2
 8002f5e:	e92d 41f0 	stmdb	sp!, {r4, r5, r6, r7, r8, lr}
 8002f62:	d070      	beq.n	8003046 <process_raw_cmd+0xee>
 8002f64:	d90e      	bls.n	8002f84 <process_raw_cmd+0x2c>
 8002f66:	4a53      	ldr	r2, [pc, #332]	; (80030b4 <process_raw_cmd+0x15c>)
 8002f68:	4293      	cmp	r3, r2
 8002f6a:	d025      	beq.n	8002fb8 <process_raw_cmd+0x60>
 8002f6c:	3201      	adds	r2, #1
 8002f6e:	4293      	cmp	r3, r2
 8002f70:	d11b      	bne.n	8002faa <process_raw_cmd+0x52>
 8002f72:	f7ff fb65 	bl	8002640 <can_override_get_dataptr>
 8002f76:	2104      	movs	r1, #4
 8002f78:	f001 fd82 	bl	8004a80 <USB_CDC_send_data>
 8002f7c:	e8bd 41f0 	ldmia.w	sp!, {r4, r5, r6, r7, r8, lr}
 8002f80:	f000 ba8a 	b.w	8003498 <el_reset_state>
 8002f84:	f6a2 32a7 	subw	r2, r2, #2983	; 0xba7
 8002f88:	4293      	cmp	r3, r2
 8002f8a:	d90b      	bls.n	8002fa4 <process_raw_cmd+0x4c>
 8002f8c:	4a4a      	ldr	r2, [pc, #296]	; (80030b8 <process_raw_cmd+0x160>)
 8002f8e:	4293      	cmp	r3, r2
 8002f90:	d10b      	bne.n	8002faa <process_raw_cmd+0x52>
 8002f92:	f7fd ff51 	bl	8000e38 <get_vehicle_settings_data>
 8002f96:	2108      	movs	r1, #8
 8002f98:	f001 fd72 	bl	8004a80 <USB_CDC_send_data>
 8002f9c:	e8bd 41f0 	ldmia.w	sp!, {r4, r5, r6, r7, r8, lr}
 8002fa0:	f000 ba7a 	b.w	8003498 <el_reset_state>
 8002fa4:	3a02      	subs	r2, #2
 8002fa6:	4293      	cmp	r3, r2
 8002fa8:	d817      	bhi.n	8002fda <process_raw_cmd+0x82>
 8002faa:	2002      	movs	r0, #2
 8002fac:	f000 fbba 	bl	8003724 <protocol_response>
 8002fb0:	e8bd 41f0 	ldmia.w	sp!, {r4, r5, r6, r7, r8, lr}
 8002fb4:	f000 ba70 	b.w	8003498 <el_reset_state>
 8002fb8:	f7ff fb42 	bl	8002640 <can_override_get_dataptr>
 8002fbc:	4604      	mov	r4, r0
 8002fbe:	2002      	movs	r0, #2
 8002fc0:	f001 fd32 	bl	8004a28 <check_USB_device_status>
 8002fc4:	2002      	movs	r0, #2
 8002fc6:	f001 fd2f 	bl	8004a28 <check_USB_device_status>
 8002fca:	07c3      	lsls	r3, r0, #31
 8002fcc:	d5f0      	bpl.n	8002fb0 <process_raw_cmd+0x58>
 8002fce:	f44f 718c 	mov.w	r1, #280	; 0x118
 8002fd2:	4620      	mov	r0, r4
 8002fd4:	f001 fd54 	bl	8004a80 <USB_CDC_send_data>
 8002fd8:	e7ea      	b.n	8002fb0 <process_raw_cmd+0x58>
 8002fda:	4a38      	ldr	r2, [pc, #224]	; (80030bc <process_raw_cmd+0x164>)
 8002fdc:	4293      	cmp	r3, r2
 8002fde:	4604      	mov	r4, r0
 8002fe0:	d054      	beq.n	800308c <process_raw_cmd+0x134>
 8002fe2:	f8d0 6090 	ldr.w	r6, [r0, #144]	; 0x90
 8002fe6:	ba36      	rev	r6, r6
 8002fe8:	b9fe      	cbnz	r6, 800302a <process_raw_cmd+0xd2>
 8002fea:	2002      	movs	r0, #2
 8002fec:	f000 fb9a 	bl	8003724 <protocol_response>
 8002ff0:	f000 fa52 	bl	8003498 <el_reset_state>
 8002ff4:	4620      	mov	r0, r4
 8002ff6:	f000 f981 	bl	80032fc <extract_address_from_cmd>
 8002ffa:	4607      	mov	r7, r0
 8002ffc:	6823      	ldr	r3, [r4, #0]
 8002ffe:	4a2f      	ldr	r2, [pc, #188]	; (80030bc <process_raw_cmd+0x164>)
 8003000:	4293      	cmp	r3, r2
 8003002:	d029      	beq.n	8003058 <process_raw_cmd+0x100>
 8003004:	4a2e      	ldr	r2, [pc, #184]	; (80030c0 <process_raw_cmd+0x168>)
 8003006:	4293      	cmp	r3, r2
 8003008:	d04d      	beq.n	80030a6 <process_raw_cmd+0x14e>
 800300a:	4b2e      	ldr	r3, [pc, #184]	; (80030c4 <process_raw_cmd+0x16c>)
 800300c:	2401      	movs	r4, #1
 800300e:	4630      	mov	r0, r6
 8003010:	71dc      	strb	r4, [r3, #7]
 8003012:	f000 fe35 	bl	8003c80 <memchip_set_pending_data>
 8003016:	4638      	mov	r0, r7
 8003018:	f000 fe42 	bl	8003ca0 <memchip_set_address>
 800301c:	4620      	mov	r0, r4
 800301e:	f000 fb81 	bl	8003724 <protocol_response>
 8003022:	e8bd 41f0 	ldmia.w	sp!, {r4, r5, r6, r7, r8, lr}
 8003026:	f000 ba37 	b.w	8003498 <el_reset_state>
 800302a:	4620      	mov	r0, r4
 800302c:	f000 f966 	bl	80032fc <extract_address_from_cmd>
 8003030:	f5c0 0380 	rsb	r3, r0, #4194304	; 0x400000
 8003034:	429e      	cmp	r6, r3
 8003036:	4607      	mov	r7, r0
 8003038:	d9e0      	bls.n	8002ffc <process_raw_cmd+0xa4>
 800303a:	2000      	movs	r0, #0
 800303c:	f000 fb72 	bl	8003724 <protocol_response>
 8003040:	f000 fa2a 	bl	8003498 <el_reset_state>
 8003044:	e7da      	b.n	8002ffc <process_raw_cmd+0xa4>
 8003046:	f7fd fa99 	bl	800057c <get_device_modes_data>
 800304a:	2123      	movs	r1, #35	; 0x23
 800304c:	f001 fd18 	bl	8004a80 <USB_CDC_send_data>
 8003050:	e8bd 41f0 	ldmia.w	sp!, {r4, r5, r6, r7, r8, lr}
 8003054:	f000 ba20 	b.w	8003498 <el_reset_state>
 8003058:	f894 3092 	ldrb.w	r3, [r4, #146]	; 0x92
 800305c:	2b00      	cmp	r3, #0
 800305e:	d0d4      	beq.n	800300a <process_raw_cmd+0xb2>
 8003060:	f3c6 030b 	ubfx	r3, r6, #0, #12
 8003064:	ea4f 3816 	mov.w	r8, r6, lsr #12
 8003068:	2b00      	cmp	r3, #0
 800306a:	bf18      	it	ne
 800306c:	f108 0801 	addne.w	r8, r8, #1
 8003070:	f1b8 0f00 	cmp.w	r8, #0
 8003074:	d0c9      	beq.n	800300a <process_raw_cmd+0xb2>
 8003076:	463d      	mov	r5, r7
 8003078:	2400      	movs	r4, #0
 800307a:	4628      	mov	r0, r5
 800307c:	3401      	adds	r4, #1
 800307e:	f000 fdf1 	bl	8003c64 <memchip_erase_block_within_address>
 8003082:	45a0      	cmp	r8, r4
 8003084:	f505 5580 	add.w	r5, r5, #4096	; 0x1000
 8003088:	d1f7      	bne.n	800307a <process_raw_cmd+0x122>
 800308a:	e7be      	b.n	800300a <process_raw_cmd+0xb2>
 800308c:	f890 608f 	ldrb.w	r6, [r0, #143]	; 0x8f
 8003090:	f890 2090 	ldrb.w	r2, [r0, #144]	; 0x90
 8003094:	f890 3091 	ldrb.w	r3, [r0, #145]	; 0x91
 8003098:	0436      	lsls	r6, r6, #16
 800309a:	ea46 2602 	orr.w	r6, r6, r2, lsl #8
 800309e:	431e      	orrs	r6, r3
 80030a0:	2e00      	cmp	r6, #0
 80030a2:	d1c2      	bne.n	800302a <process_raw_cmd+0xd2>
 80030a4:	e7a1      	b.n	8002fea <process_raw_cmd+0x92>
 80030a6:	f894 3094 	ldrb.w	r3, [r4, #148]	; 0x94
 80030aa:	2b00      	cmp	r3, #0
 80030ac:	d0ad      	beq.n	800300a <process_raw_cmd+0xb2>
 80030ae:	e7d7      	b.n	8003060 <process_raw_cmd+0x108>
 80030b0:	f0000bb0 	.word	0xf0000bb0
 80030b4:	f0000bb1 	.word	0xf0000bb1
 80030b8:	f0000ab0 	.word	0xf0000ab0
 80030bc:	f0000008 	.word	0xf0000008
 80030c0:	f0000009 	.word	0xf0000009
 80030c4:	20000054 	.word	0x20000054

080030c8 <set_vehicle_value>:
 80030c8:	f46f 6320 	mvn.w	r3, #2560	; 0xa00
 80030cc:	4418      	add	r0, r3
 80030ce:	b510      	push	{r4, lr}
 80030d0:	460c      	mov	r4, r1
 80030d2:	2807      	cmp	r0, #7
 80030d4:	d829      	bhi.n	800312a <set_vehicle_value+0x62>
 80030d6:	e8df f000 	tbb	[pc, r0]
 80030da:	280e      	.short	0x280e
 80030dc:	231e1914 	.word	0x231e1914
 80030e0:	0404      	.short	0x0404
 80030e2:	f7fd feb3 	bl	8000e4c <vehicle_modes>
 80030e6:	ea20 2114 	bic.w	r1, r0, r4, lsr #8
 80030ea:	4321      	orrs	r1, r4
 80030ec:	b2c8      	uxtb	r0, r1
 80030ee:	e8bd 4010 	ldmia.w	sp!, {r4, lr}
 80030f2:	f7fd bf27 	b.w	8000f44 <vehicle_set_modes>
 80030f6:	b2a0      	uxth	r0, r4
 80030f8:	2102      	movs	r1, #2
 80030fa:	e8bd 4010 	ldmia.w	sp!, {r4, lr}
 80030fe:	f7fd befd 	b.w	8000efc <vehicle_set_model>
 8003102:	e8bd 4010 	ldmia.w	sp!, {r4, lr}
 8003106:	b2c8      	uxtb	r0, r1
 8003108:	f7fd bf28 	b.w	8000f5c <vehicle_set_spd_mlt>
 800310c:	e8bd 4010 	ldmia.w	sp!, {r4, lr}
 8003110:	b2c8      	uxtb	r0, r1
 8003112:	f7fd bf1d 	b.w	8000f50 <vehicle_set_odo_mlt>
 8003116:	e8bd 4010 	ldmia.w	sp!, {r4, lr}
 800311a:	b2c8      	uxtb	r0, r1
 800311c:	f7fd bf24 	b.w	8000f68 <vehicle_set_crs_mlt>
 8003120:	e8bd 4010 	ldmia.w	sp!, {r4, lr}
 8003124:	b2c8      	uxtb	r0, r1
 8003126:	f7fd bf25 	b.w	8000f74 <vehicle_set_tyr_thr>
 800312a:	bd10      	pop	{r4, pc}

0800312c <cmd_specific_process>:
 800312c:	b510      	push	{r4, lr}
 800312e:	6803      	ldr	r3, [r0, #0]
 8003130:	f5b3 6f2a 	cmp.w	r3, #2720	; 0xaa0
 8003134:	b084      	sub	sp, #16
 8003136:	f000 8089 	beq.w	800324c <cmd_specific_process+0x120>
 800313a:	d916      	bls.n	800316a <cmd_specific_process+0x3e>
 800313c:	f5b3 6f3a 	cmp.w	r3, #2976	; 0xba0
 8003140:	d050      	beq.n	80031e4 <cmd_specific_process+0xb8>
 8003142:	d920      	bls.n	8003186 <cmd_specific_process+0x5a>
 8003144:	f640 32a1 	movw	r2, #2977	; 0xba1
 8003148:	4293      	cmp	r3, r2
 800314a:	d147      	bne.n	80031dc <cmd_specific_process+0xb0>
 800314c:	f44f 708c 	mov.w	r0, #280	; 0x118
 8003150:	f7fd fae0 	bl	8000714 <ram_upd_set_size>
 8003154:	4b49      	ldr	r3, [pc, #292]	; (800327c <cmd_specific_process+0x150>)
 8003156:	2206      	movs	r2, #6
 8003158:	2001      	movs	r0, #1
 800315a:	71da      	strb	r2, [r3, #7]
 800315c:	f000 fae2 	bl	8003724 <protocol_response>
 8003160:	b004      	add	sp, #16
 8003162:	e8bd 4010 	ldmia.w	sp!, {r4, lr}
 8003166:	f000 b997 	b.w	8003498 <el_reset_state>
 800316a:	f46f 6220 	mvn.w	r2, #2560	; 0xa00
 800316e:	4413      	add	r3, r2
 8003170:	2b09      	cmp	r3, #9
 8003172:	d833      	bhi.n	80031dc <cmd_specific_process+0xb0>
 8003174:	2b09      	cmp	r3, #9
 8003176:	d831      	bhi.n	80031dc <cmd_specific_process+0xb0>
 8003178:	e8df f003 	tbb	[pc, r3]
 800317c:	13133013 	.word	0x13133013
 8003180:	13131313 	.word	0x13131313
 8003184:	261c      	.short	0x261c
 8003186:	f5b3 6f2b 	cmp.w	r3, #2736	; 0xab0
 800318a:	d043      	beq.n	8003214 <cmd_specific_process+0xe8>
 800318c:	f640 3207 	movw	r2, #2823	; 0xb07
 8003190:	4293      	cmp	r3, r2
 8003192:	d123      	bne.n	80031dc <cmd_specific_process+0xb0>
 8003194:	f000 f932 	bl	80033fc <user_cmd_set_device_mode>
 8003198:	b004      	add	sp, #16
 800319a:	e8bd 4010 	ldmia.w	sp!, {r4, lr}
 800319e:	f000 b97b 	b.w	8003498 <el_reset_state>
 80031a2:	4604      	mov	r4, r0
 80031a4:	4601      	mov	r1, r0
 80031a6:	2008      	movs	r0, #8
 80031a8:	f000 f922 	bl	80033f0 <assert_cmd_length>
 80031ac:	2800      	cmp	r0, #0
 80031ae:	d15b      	bne.n	8003268 <cmd_specific_process+0x13c>
 80031b0:	b004      	add	sp, #16
 80031b2:	bd10      	pop	{r4, pc}
 80031b4:	f7fd f9da 	bl	800056c <getDeviceSoftwareVersion>
 80031b8:	2110      	movs	r1, #16
 80031ba:	f001 fc61 	bl	8004a80 <USB_CDC_send_data>
 80031be:	b004      	add	sp, #16
 80031c0:	e8bd 4010 	ldmia.w	sp!, {r4, lr}
 80031c4:	f000 b968 	b.w	8003498 <el_reset_state>
 80031c8:	f7fd ffe0 	bl	800118c <get_board_name>
 80031cc:	2110      	movs	r1, #16
 80031ce:	f001 fc57 	bl	8004a80 <USB_CDC_send_data>
 80031d2:	b004      	add	sp, #16
 80031d4:	e8bd 4010 	ldmia.w	sp!, {r4, lr}
 80031d8:	f000 b95e 	b.w	8003498 <el_reset_state>
 80031dc:	2002      	movs	r0, #2
 80031de:	f000 faa1 	bl	8003724 <protocol_response>
 80031e2:	e7bd      	b.n	8003160 <cmd_specific_process+0x34>
 80031e4:	f7fd f9ca 	bl	800057c <get_device_modes_data>
 80031e8:	4604      	mov	r4, r0
 80031ea:	2001      	movs	r0, #1
 80031ec:	f7fd ff20 	bl	8001030 <memchip_make_app_address>
 80031f0:	2223      	movs	r2, #35	; 0x23
 80031f2:	4621      	mov	r1, r4
 80031f4:	f000 fd26 	bl	8003c44 <memchip_rewrite>
 80031f8:	2801      	cmp	r0, #1
 80031fa:	d0af      	beq.n	800315c <cmd_specific_process+0x30>
 80031fc:	f7ff fa20 	bl	8002640 <can_override_get_dataptr>
 8003200:	4604      	mov	r4, r0
 8003202:	2002      	movs	r0, #2
 8003204:	f7fd ff14 	bl	8001030 <memchip_make_app_address>
 8003208:	f44f 728c 	mov.w	r2, #280	; 0x118
 800320c:	4621      	mov	r1, r4
 800320e:	f000 fd17 	bl	8003c40 <memchip_write>
 8003212:	e7a3      	b.n	800315c <cmd_specific_process+0x30>
 8003214:	f7fd fe10 	bl	8000e38 <get_vehicle_settings_data>
 8003218:	4669      	mov	r1, sp
 800321a:	4604      	mov	r4, r0
 800321c:	2201      	movs	r2, #1
 800321e:	3001      	adds	r0, #1
 8003220:	f7fd fdd4 	bl	8000dcc <hexArray2asciiArray>
 8003224:	f10d 0102 	add.w	r1, sp, #2
 8003228:	4620      	mov	r0, r4
 800322a:	2201      	movs	r2, #1
 800322c:	f7fd fdce 	bl	8000dcc <hexArray2asciiArray>
 8003230:	a901      	add	r1, sp, #4
 8003232:	1ca0      	adds	r0, r4, #2
 8003234:	2206      	movs	r2, #6
 8003236:	f7fd fdc9 	bl	8000dcc <hexArray2asciiArray>
 800323a:	2110      	movs	r1, #16
 800323c:	4668      	mov	r0, sp
 800323e:	f001 fc1f 	bl	8004a80 <USB_CDC_send_data>
 8003242:	b004      	add	sp, #16
 8003244:	e8bd 4010 	ldmia.w	sp!, {r4, lr}
 8003248:	f000 b926 	b.w	8003498 <el_reset_state>
 800324c:	f7fd fdf4 	bl	8000e38 <get_vehicle_settings_data>
 8003250:	4604      	mov	r4, r0
 8003252:	2000      	movs	r0, #0
 8003254:	f7fd feec 	bl	8001030 <memchip_make_app_address>
 8003258:	2208      	movs	r2, #8
 800325a:	4621      	mov	r1, r4
 800325c:	f000 fcf2 	bl	8003c44 <memchip_rewrite>
 8003260:	2001      	movs	r0, #1
 8003262:	f000 fa5f 	bl	8003724 <protocol_response>
 8003266:	e77b      	b.n	8003160 <cmd_specific_process+0x34>
 8003268:	f104 0008 	add.w	r0, r4, #8
 800326c:	f7fd fcb0 	bl	8000bd0 <str_to_uint32>
 8003270:	4601      	mov	r1, r0
 8003272:	6820      	ldr	r0, [r4, #0]
 8003274:	f7ff ff28 	bl	80030c8 <set_vehicle_value>
 8003278:	2001      	movs	r0, #1
 800327a:	e76f      	b.n	800315c <cmd_specific_process+0x30>
 800327c:	20000054 	.word	0x20000054

08003280 <read_mem_data_and_usb_send>:
 8003280:	b570      	push	{r4, r5, r6, lr}
 8003282:	b082      	sub	sp, #8
 8003284:	4d1c      	ldr	r5, [pc, #112]	; (80032f8 <read_mem_data_and_usb_send+0x78>)
 8003286:	9101      	str	r1, [sp, #4]
 8003288:	4604      	mov	r4, r0
 800328a:	f240 16ff 	movw	r6, #511	; 0x1ff
 800328e:	e00e      	b.n	80032ae <read_mem_data_and_usb_send+0x2e>
 8003290:	9801      	ldr	r0, [sp, #4]
 8003292:	f000 fc9d 	bl	8003bd0 <memchip_read>
 8003296:	f44f 7100 	mov.w	r1, #512	; 0x200
 800329a:	4628      	mov	r0, r5
 800329c:	f5a4 7400 	sub.w	r4, r4, #512	; 0x200
 80032a0:	f001 fbee 	bl	8004a80 <USB_CDC_send_data>
 80032a4:	b1c8      	cbz	r0, 80032da <read_mem_data_and_usb_send+0x5a>
 80032a6:	9b01      	ldr	r3, [sp, #4]
 80032a8:	f503 7300 	add.w	r3, r3, #512	; 0x200
 80032ac:	9301      	str	r3, [sp, #4]
 80032ae:	2002      	movs	r0, #2
 80032b0:	f001 fbba 	bl	8004a28 <check_USB_device_status>
 80032b4:	42b4      	cmp	r4, r6
 80032b6:	bf94      	ite	ls
 80032b8:	2000      	movls	r0, #0
 80032ba:	f000 0001 	andhi.w	r0, r0, #1
 80032be:	f44f 7200 	mov.w	r2, #512	; 0x200
 80032c2:	4629      	mov	r1, r5
 80032c4:	2800      	cmp	r0, #0
 80032c6:	d1e3      	bne.n	8003290 <read_mem_data_and_usb_send+0x10>
 80032c8:	2002      	movs	r0, #2
 80032ca:	f001 fbad 	bl	8004a28 <check_USB_device_status>
 80032ce:	2c00      	cmp	r4, #0
 80032d0:	bf0c      	ite	eq
 80032d2:	2000      	moveq	r0, #0
 80032d4:	f000 0001 	andne.w	r0, r0, #1
 80032d8:	b908      	cbnz	r0, 80032de <read_mem_data_and_usb_send+0x5e>
 80032da:	b002      	add	sp, #8
 80032dc:	bd70      	pop	{r4, r5, r6, pc}
 80032de:	9801      	ldr	r0, [sp, #4]
 80032e0:	4905      	ldr	r1, [pc, #20]	; (80032f8 <read_mem_data_and_usb_send+0x78>)
 80032e2:	4622      	mov	r2, r4
 80032e4:	f000 fc74 	bl	8003bd0 <memchip_read>
 80032e8:	4803      	ldr	r0, [pc, #12]	; (80032f8 <read_mem_data_and_usb_send+0x78>)
 80032ea:	b2a1      	uxth	r1, r4
 80032ec:	b002      	add	sp, #8
 80032ee:	e8bd 4070 	ldmia.w	sp!, {r4, r5, r6, lr}
 80032f2:	f001 bbc5 	b.w	8004a80 <USB_CDC_send_data>
 80032f6:	bf00      	nop
 80032f8:	200085d4 	.word	0x200085d4

080032fc <extract_address_from_cmd>:
 80032fc:	6802      	ldr	r2, [r0, #0]
 80032fe:	2a13      	cmp	r2, #19
 8003300:	4603      	mov	r3, r0
 8003302:	d026      	beq.n	8003352 <extract_address_from_cmd+0x56>
 8003304:	4916      	ldr	r1, [pc, #88]	; (8003360 <extract_address_from_cmd+0x64>)
 8003306:	428a      	cmp	r2, r1
 8003308:	d01d      	beq.n	8003346 <extract_address_from_cmd+0x4a>
 800330a:	f890 008e 	ldrb.w	r0, [r0, #142]	; 0x8e
 800330e:	2201      	movs	r2, #1
 8003310:	f04f 0c03 	mov.w	ip, #3
 8003314:	1899      	adds	r1, r3, r2
 8003316:	f1bc 0f04 	cmp.w	ip, #4
 800331a:	f891 108c 	ldrb.w	r1, [r1, #140]	; 0x8c
 800331e:	ea40 2001 	orr.w	r0, r0, r1, lsl #8
 8003322:	f102 31ff 	add.w	r1, r2, #4294967295	; 0xffffffff
 8003326:	fa53 f181 	uxtab	r1, r3, r1
 800332a:	f1a2 0202 	sub.w	r2, r2, #2
 800332e:	f891 108c 	ldrb.w	r1, [r1, #140]	; 0x8c
 8003332:	b2d2      	uxtb	r2, r2
 8003334:	ea40 4001 	orr.w	r0, r0, r1, lsl #16
 8003338:	d104      	bne.n	8003344 <extract_address_from_cmd+0x48>
 800333a:	441a      	add	r2, r3
 800333c:	f892 308c 	ldrb.w	r3, [r2, #140]	; 0x8c
 8003340:	ea40 6003 	orr.w	r0, r0, r3, lsl #24
 8003344:	4770      	bx	lr
 8003346:	f890 0093 	ldrb.w	r0, [r0, #147]	; 0x93
 800334a:	2206      	movs	r2, #6
 800334c:	f04f 0c04 	mov.w	ip, #4
 8003350:	e7e0      	b.n	8003314 <extract_address_from_cmd+0x18>
 8003352:	f890 008f 	ldrb.w	r0, [r0, #143]	; 0x8f
 8003356:	2202      	movs	r2, #2
 8003358:	f04f 0c04 	mov.w	ip, #4
 800335c:	e7da      	b.n	8003314 <extract_address_from_cmd+0x18>
 800335e:	bf00      	nop
 8003360:	f0000009 	.word	0xf0000009

08003364 <extract_length_from_cmd>:
 8003364:	6803      	ldr	r3, [r0, #0]
 8003366:	2b13      	cmp	r3, #19
 8003368:	d00a      	beq.n	8003380 <extract_length_from_cmd+0x1c>
 800336a:	f890 308f 	ldrb.w	r3, [r0, #143]	; 0x8f
 800336e:	f890 1090 	ldrb.w	r1, [r0, #144]	; 0x90
 8003372:	f890 2091 	ldrb.w	r2, [r0, #145]	; 0x91
 8003376:	0418      	lsls	r0, r3, #16
 8003378:	ea40 2001 	orr.w	r0, r0, r1, lsl #8
 800337c:	4310      	orrs	r0, r2
 800337e:	4770      	bx	lr
 8003380:	f8d0 0090 	ldr.w	r0, [r0, #144]	; 0x90
 8003384:	ba00      	rev	r0, r0
 8003386:	4770      	bx	lr

08003388 <erase_sector>:
 8003388:	6802      	ldr	r2, [r0, #0]
 800338a:	2a13      	cmp	r2, #19
 800338c:	4603      	mov	r3, r0
 800338e:	d027      	beq.n	80033e0 <erase_sector+0x58>
 8003390:	4916      	ldr	r1, [pc, #88]	; (80033ec <erase_sector+0x64>)
 8003392:	428a      	cmp	r2, r1
 8003394:	d01e      	beq.n	80033d4 <erase_sector+0x4c>
 8003396:	f890 008e 	ldrb.w	r0, [r0, #142]	; 0x8e
 800339a:	2201      	movs	r2, #1
 800339c:	f04f 0c03 	mov.w	ip, #3
 80033a0:	1899      	adds	r1, r3, r2
 80033a2:	f1bc 0f04 	cmp.w	ip, #4
 80033a6:	f891 108c 	ldrb.w	r1, [r1, #140]	; 0x8c
 80033aa:	ea40 2001 	orr.w	r0, r0, r1, lsl #8
 80033ae:	f102 31ff 	add.w	r1, r2, #4294967295	; 0xffffffff
 80033b2:	fa53 f181 	uxtab	r1, r3, r1
 80033b6:	f1a2 0202 	sub.w	r2, r2, #2
 80033ba:	f891 108c 	ldrb.w	r1, [r1, #140]	; 0x8c
 80033be:	b2d2      	uxtb	r2, r2
 80033c0:	ea40 4001 	orr.w	r0, r0, r1, lsl #16
 80033c4:	d104      	bne.n	80033d0 <erase_sector+0x48>
 80033c6:	441a      	add	r2, r3
 80033c8:	f892 308c 	ldrb.w	r3, [r2, #140]	; 0x8c
 80033cc:	ea40 6003 	orr.w	r0, r0, r3, lsl #24
 80033d0:	f000 bc48 	b.w	8003c64 <memchip_erase_block_within_address>
 80033d4:	f890 0093 	ldrb.w	r0, [r0, #147]	; 0x93
 80033d8:	2206      	movs	r2, #6
 80033da:	f04f 0c04 	mov.w	ip, #4
 80033de:	e7df      	b.n	80033a0 <erase_sector+0x18>
 80033e0:	f890 008f 	ldrb.w	r0, [r0, #143]	; 0x8f
 80033e4:	2202      	movs	r2, #2
 80033e6:	f04f 0c04 	mov.w	ip, #4
 80033ea:	e7d9      	b.n	80033a0 <erase_sector+0x18>
 80033ec:	f0000009 	.word	0xf0000009

080033f0 <assert_cmd_length>:
 80033f0:	684b      	ldr	r3, [r1, #4]
 80033f2:	1a18      	subs	r0, r3, r0
 80033f4:	fab0 f080 	clz	r0, r0
 80033f8:	0940      	lsrs	r0, r0, #5
 80033fa:	4770      	bx	lr

080033fc <user_cmd_set_device_mode>:
 80033fc:	b538      	push	{r3, r4, r5, lr}
 80033fe:	f8d0 3088 	ldr.w	r3, [r0, #136]	; 0x88
 8003402:	2b04      	cmp	r3, #4
 8003404:	d004      	beq.n	8003410 <user_cmd_set_device_mode+0x14>
 8003406:	e8bd 4038 	ldmia.w	sp!, {r3, r4, r5, lr}
 800340a:	2000      	movs	r0, #0
 800340c:	f000 b98a 	b.w	8003724 <protocol_response>
 8003410:	4604      	mov	r4, r0
 8003412:	f7ff ff73 	bl	80032fc <extract_address_from_cmd>
 8003416:	2823      	cmp	r0, #35	; 0x23
 8003418:	d8f5      	bhi.n	8003406 <user_cmd_set_device_mode+0xa>
 800341a:	f894 408f 	ldrb.w	r4, [r4, #143]	; 0x8f
 800341e:	1ea3      	subs	r3, r4, #2
 8003420:	bf18      	it	ne
 8003422:	2301      	movne	r3, #1
 8003424:	2808      	cmp	r0, #8
 8003426:	d108      	bne.n	800343a <user_cmd_set_device_mode+0x3e>
 8003428:	b13b      	cbz	r3, 800343a <user_cmd_set_device_mode+0x3e>
 800342a:	4d17      	ldr	r5, [pc, #92]	; (8003488 <user_cmd_set_device_mode+0x8c>)
 800342c:	7ceb      	ldrb	r3, [r5, #19]
 800342e:	2b02      	cmp	r3, #2
 8003430:	d001      	beq.n	8003436 <user_cmd_set_device_mode+0x3a>
 8003432:	2302      	movs	r3, #2
 8003434:	74eb      	strb	r3, [r5, #19]
 8003436:	722c      	strb	r4, [r5, #8]
 8003438:	bd38      	pop	{r3, r4, r5, pc}
 800343a:	2813      	cmp	r0, #19
 800343c:	d10d      	bne.n	800345a <user_cmd_set_device_mode+0x5e>
 800343e:	b163      	cbz	r3, 800345a <user_cmd_set_device_mode+0x5e>
 8003440:	4d11      	ldr	r5, [pc, #68]	; (8003488 <user_cmd_set_device_mode+0x8c>)
 8003442:	7a2b      	ldrb	r3, [r5, #8]
 8003444:	2b02      	cmp	r3, #2
 8003446:	d003      	beq.n	8003450 <user_cmd_set_device_mode+0x54>
 8003448:	2302      	movs	r3, #2
 800344a:	722b      	strb	r3, [r5, #8]
 800344c:	f7ff f84c 	bl	80024e8 <stopMessageInjection>
 8003450:	74ec      	strb	r4, [r5, #19]
 8003452:	e8bd 4038 	ldmia.w	sp!, {r3, r4, r5, lr}
 8003456:	f7ff b871 	b.w	800253c <CDC_initMessageInjection>
 800345a:	4a0b      	ldr	r2, [pc, #44]	; (8003488 <user_cmd_set_device_mode+0x8c>)
 800345c:	1f43      	subs	r3, r0, #5
 800345e:	2b01      	cmp	r3, #1
 8003460:	5414      	strb	r4, [r2, r0]
 8003462:	d806      	bhi.n	8003472 <user_cmd_set_device_mode+0x76>
 8003464:	2c01      	cmp	r4, #1
 8003466:	d104      	bne.n	8003472 <user_cmd_set_device_mode+0x76>
 8003468:	e8bd 4038 	ldmia.w	sp!, {r3, r4, r5, lr}
 800346c:	4807      	ldr	r0, [pc, #28]	; (800348c <user_cmd_set_device_mode+0x90>)
 800346e:	f7fd b949 	b.w	8000704 <resetCanTimer>
 8003472:	2808      	cmp	r0, #8
 8003474:	d0e0      	beq.n	8003438 <user_cmd_set_device_mode+0x3c>
 8003476:	2813      	cmp	r0, #19
 8003478:	d0de      	beq.n	8003438 <user_cmd_set_device_mode+0x3c>
 800347a:	2001      	movs	r0, #1
 800347c:	f000 f952 	bl	8003724 <protocol_response>
 8003480:	e8bd 4038 	ldmia.w	sp!, {r3, r4, r5, lr}
 8003484:	f000 b808 	b.w	8003498 <el_reset_state>
 8003488:	20000054 	.word	0x20000054
 800348c:	40010000 	.word	0x40010000

08003490 <el_get_current_cmd>:
 8003490:	4800      	ldr	r0, [pc, #0]	; (8003494 <el_get_current_cmd+0x4>)
 8003492:	4770      	bx	lr
 8003494:	20008898 	.word	0x20008898

08003498 <el_reset_state>:
 8003498:	b508      	push	{r3, lr}
 800349a:	4b04      	ldr	r3, [pc, #16]	; (80034ac <el_reset_state+0x14>)
 800349c:	4804      	ldr	r0, [pc, #16]	; (80034b0 <el_reset_state+0x18>)
 800349e:	2100      	movs	r1, #0
 80034a0:	229c      	movs	r2, #156	; 0x9c
 80034a2:	6019      	str	r1, [r3, #0]
 80034a4:	f7fc ff72 	bl	800038c <memset>
 80034a8:	2001      	movs	r0, #1
 80034aa:	bd08      	pop	{r3, pc}
 80034ac:	20008894 	.word	0x20008894
 80034b0:	20008898 	.word	0x20008898

080034b4 <fill_elp_buffer>:
 80034b4:	b5f8      	push	{r3, r4, r5, r6, r7, lr}
 80034b6:	4d32      	ldr	r5, [pc, #200]	; (8003580 <fill_elp_buffer+0xcc>)
 80034b8:	682f      	ldr	r7, [r5, #0]
 80034ba:	2fbf      	cmp	r7, #191	; 0xbf
 80034bc:	4604      	mov	r4, r0
 80034be:	460e      	mov	r6, r1
 80034c0:	d047      	beq.n	8003552 <fill_elp_buffer+0x9e>
 80034c2:	19cb      	adds	r3, r1, r7
 80034c4:	2bbf      	cmp	r3, #191	; 0xbf
 80034c6:	d83f      	bhi.n	8003548 <fill_elp_buffer+0x94>
 80034c8:	2e00      	cmp	r6, #0
 80034ca:	d03b      	beq.n	8003544 <fill_elp_buffer+0x90>
 80034cc:	f8df e0b4 	ldr.w	lr, [pc, #180]	; 8003584 <fill_elp_buffer+0xd0>
 80034d0:	1c61      	adds	r1, r4, #1
 80034d2:	eb0e 0307 	add.w	r3, lr, r7
 80034d6:	1a59      	subs	r1, r3, r1
 80034d8:	1e72      	subs	r2, r6, #1
 80034da:	2902      	cmp	r1, #2
 80034dc:	b292      	uxth	r2, r2
 80034de:	d940      	bls.n	8003562 <fill_elp_buffer+0xae>
 80034e0:	2a19      	cmp	r2, #25
 80034e2:	d93e      	bls.n	8003562 <fill_elp_buffer+0xae>
 80034e4:	08b0      	lsrs	r0, r6, #2
 80034e6:	eb04 0080 	add.w	r0, r4, r0, lsl #2
 80034ea:	46bc      	mov	ip, r7
 80034ec:	4622      	mov	r2, r4
 80034ee:	f852 1b04 	ldr.w	r1, [r2], #4
 80034f2:	f843 1b04 	str.w	r1, [r3], #4
 80034f6:	4282      	cmp	r2, r0
 80034f8:	f10c 0c04 	add.w	ip, ip, #4
 80034fc:	d1f7      	bne.n	80034ee <fill_elp_buffer+0x3a>
 80034fe:	f026 0303 	bic.w	r3, r6, #3
 8003502:	b29b      	uxth	r3, r3
 8003504:	429e      	cmp	r6, r3
 8003506:	441f      	add	r7, r3
 8003508:	eb04 0103 	add.w	r1, r4, r3
 800350c:	b2d8      	uxtb	r0, r3
 800350e:	d017      	beq.n	8003540 <fill_elp_buffer+0x8c>
 8003510:	5ce3      	ldrb	r3, [r4, r3]
 8003512:	f80e 3007 	strb.w	r3, [lr, r7]
 8003516:	1c43      	adds	r3, r0, #1
 8003518:	b2db      	uxtb	r3, r3
 800351a:	42b3      	cmp	r3, r6
 800351c:	f107 0c01 	add.w	ip, r7, #1
 8003520:	d20e      	bcs.n	8003540 <fill_elp_buffer+0x8c>
 8003522:	3002      	adds	r0, #2
 8003524:	f000 00fe 	and.w	r0, r0, #254	; 0xfe
 8003528:	784b      	ldrb	r3, [r1, #1]
 800352a:	f80e 300c 	strb.w	r3, [lr, ip]
 800352e:	42b0      	cmp	r0, r6
 8003530:	f107 0c02 	add.w	ip, r7, #2
 8003534:	d204      	bcs.n	8003540 <fill_elp_buffer+0x8c>
 8003536:	788b      	ldrb	r3, [r1, #2]
 8003538:	f80e 300c 	strb.w	r3, [lr, ip]
 800353c:	f107 0c03 	add.w	ip, r7, #3
 8003540:	f8c5 c000 	str.w	ip, [r5]
 8003544:	2001      	movs	r0, #1
 8003546:	bdf8      	pop	{r3, r4, r5, r6, r7, pc}
 8003548:	f1a1 0640 	sub.w	r6, r1, #64	; 0x40
 800354c:	1af6      	subs	r6, r6, r3
 800354e:	b2b6      	uxth	r6, r6
 8003550:	e7ba      	b.n	80034c8 <fill_elp_buffer+0x14>
 8003552:	2700      	movs	r7, #0
 8003554:	229c      	movs	r2, #156	; 0x9c
 8003556:	4639      	mov	r1, r7
 8003558:	480b      	ldr	r0, [pc, #44]	; (8003588 <fill_elp_buffer+0xd4>)
 800355a:	602f      	str	r7, [r5, #0]
 800355c:	f7fc ff16 	bl	800038c <memset>
 8003560:	e7b2      	b.n	80034c8 <fill_elp_buffer+0x14>
 8003562:	3b01      	subs	r3, #1
 8003564:	18a0      	adds	r0, r4, r2
 8003566:	1e61      	subs	r1, r4, #1
 8003568:	f101 0c02 	add.w	ip, r1, #2
 800356c:	f811 2f01 	ldrb.w	r2, [r1, #1]!
 8003570:	f803 2f01 	strb.w	r2, [r3, #1]!
 8003574:	ebac 0c04 	sub.w	ip, ip, r4
 8003578:	4281      	cmp	r1, r0
 800357a:	44bc      	add	ip, r7
 800357c:	d1f4      	bne.n	8003568 <fill_elp_buffer+0xb4>
 800357e:	e7df      	b.n	8003540 <fill_elp_buffer+0x8c>
 8003580:	20008894 	.word	0x20008894
 8003584:	200087d4 	.word	0x200087d4
 8003588:	20008898 	.word	0x20008898

0800358c <find_and_parse_elp_cmd>:
 800358c:	e92d 43f8 	stmdb	sp!, {r3, r4, r5, r6, r7, r8, r9, lr}
 8003590:	4f5f      	ldr	r7, [pc, #380]	; (8003710 <find_and_parse_elp_cmd+0x184>)
 8003592:	4d60      	ldr	r5, [pc, #384]	; (8003714 <find_and_parse_elp_cmd+0x188>)
 8003594:	6838      	ldr	r0, [r7, #0]
 8003596:	2301      	movs	r3, #1
 8003598:	2600      	movs	r6, #0
 800359a:	24ff      	movs	r4, #255	; 0xff
 800359c:	e005      	b.n	80035aa <find_and_parse_elp_cmd+0x1e>
 800359e:	461a      	mov	r2, r3
 80035a0:	4282      	cmp	r2, r0
 80035a2:	f103 0301 	add.w	r3, r3, #1
 80035a6:	b2db      	uxtb	r3, r3
 80035a8:	d813      	bhi.n	80035d2 <find_and_parse_elp_cmd+0x46>
 80035aa:	1e5a      	subs	r2, r3, #1
 80035ac:	b2d2      	uxtb	r2, r2
 80035ae:	18a9      	adds	r1, r5, r2
 80035b0:	f811 1c01 	ldrb.w	r1, [r1, #-1]
 80035b4:	2940      	cmp	r1, #64	; 0x40
 80035b6:	d1f2      	bne.n	800359e <find_and_parse_elp_cmd+0x12>
 80035b8:	5caa      	ldrb	r2, [r5, r2]
 80035ba:	2a53      	cmp	r2, #83	; 0x53
 80035bc:	d010      	beq.n	80035e0 <find_and_parse_elp_cmd+0x54>
 80035be:	2a45      	cmp	r2, #69	; 0x45
 80035c0:	d1ed      	bne.n	800359e <find_and_parse_elp_cmd+0x12>
 80035c2:	461a      	mov	r2, r3
 80035c4:	1ede      	subs	r6, r3, #3
 80035c6:	4282      	cmp	r2, r0
 80035c8:	f103 0301 	add.w	r3, r3, #1
 80035cc:	b2f6      	uxtb	r6, r6
 80035ce:	b2db      	uxtb	r3, r3
 80035d0:	d9eb      	bls.n	80035aa <find_and_parse_elp_cmd+0x1e>
 80035d2:	42b4      	cmp	r4, r6
 80035d4:	d310      	bcc.n	80035f8 <find_and_parse_elp_cmd+0x6c>
 80035d6:	28bf      	cmp	r0, #191	; 0xbf
 80035d8:	d804      	bhi.n	80035e4 <find_and_parse_elp_cmd+0x58>
 80035da:	2002      	movs	r0, #2
 80035dc:	e8bd 83f8 	ldmia.w	sp!, {r3, r4, r5, r6, r7, r8, r9, pc}
 80035e0:	461c      	mov	r4, r3
 80035e2:	e7dc      	b.n	800359e <find_and_parse_elp_cmd+0x12>
 80035e4:	2400      	movs	r4, #0
 80035e6:	229c      	movs	r2, #156	; 0x9c
 80035e8:	4621      	mov	r1, r4
 80035ea:	484b      	ldr	r0, [pc, #300]	; (8003718 <find_and_parse_elp_cmd+0x18c>)
 80035ec:	603c      	str	r4, [r7, #0]
 80035ee:	f7fc fecd 	bl	800038c <memset>
 80035f2:	4620      	mov	r0, r4
 80035f4:	e8bd 83f8 	ldmia.w	sp!, {r3, r4, r5, r6, r7, r8, r9, pc}
 80035f8:	1b33      	subs	r3, r6, r4
 80035fa:	2b06      	cmp	r3, #6
 80035fc:	dd5a      	ble.n	80036b4 <find_and_parse_elp_cmd+0x128>
 80035fe:	f104 0708 	add.w	r7, r4, #8
 8003602:	42bc      	cmp	r4, r7
 8003604:	d229      	bcs.n	800365a <find_and_parse_elp_cmd+0xce>
 8003606:	5d2b      	ldrb	r3, [r5, r4]
 8003608:	2b23      	cmp	r3, #35	; 0x23
 800360a:	d053      	beq.n	80036b4 <find_and_parse_elp_cmd+0x128>
 800360c:	2b40      	cmp	r3, #64	; 0x40
 800360e:	d051      	beq.n	80036b4 <find_and_parse_elp_cmd+0x128>
 8003610:	192b      	adds	r3, r5, r4
 8003612:	785a      	ldrb	r2, [r3, #1]
 8003614:	2a23      	cmp	r2, #35	; 0x23
 8003616:	d04d      	beq.n	80036b4 <find_and_parse_elp_cmd+0x128>
 8003618:	2a40      	cmp	r2, #64	; 0x40
 800361a:	d04b      	beq.n	80036b4 <find_and_parse_elp_cmd+0x128>
 800361c:	789b      	ldrb	r3, [r3, #2]
 800361e:	2b40      	cmp	r3, #64	; 0x40
 8003620:	d048      	beq.n	80036b4 <find_and_parse_elp_cmd+0x128>
 8003622:	2b23      	cmp	r3, #35	; 0x23
 8003624:	d046      	beq.n	80036b4 <find_and_parse_elp_cmd+0x128>
 8003626:	192b      	adds	r3, r5, r4
 8003628:	78da      	ldrb	r2, [r3, #3]
 800362a:	2a40      	cmp	r2, #64	; 0x40
 800362c:	d042      	beq.n	80036b4 <find_and_parse_elp_cmd+0x128>
 800362e:	2a23      	cmp	r2, #35	; 0x23
 8003630:	d040      	beq.n	80036b4 <find_and_parse_elp_cmd+0x128>
 8003632:	791a      	ldrb	r2, [r3, #4]
 8003634:	2a40      	cmp	r2, #64	; 0x40
 8003636:	d03d      	beq.n	80036b4 <find_and_parse_elp_cmd+0x128>
 8003638:	2a23      	cmp	r2, #35	; 0x23
 800363a:	d03b      	beq.n	80036b4 <find_and_parse_elp_cmd+0x128>
 800363c:	795a      	ldrb	r2, [r3, #5]
 800363e:	2a40      	cmp	r2, #64	; 0x40
 8003640:	d038      	beq.n	80036b4 <find_and_parse_elp_cmd+0x128>
 8003642:	2a23      	cmp	r2, #35	; 0x23
 8003644:	d036      	beq.n	80036b4 <find_and_parse_elp_cmd+0x128>
 8003646:	799a      	ldrb	r2, [r3, #6]
 8003648:	2a40      	cmp	r2, #64	; 0x40
 800364a:	d033      	beq.n	80036b4 <find_and_parse_elp_cmd+0x128>
 800364c:	2a23      	cmp	r2, #35	; 0x23
 800364e:	d031      	beq.n	80036b4 <find_and_parse_elp_cmd+0x128>
 8003650:	79db      	ldrb	r3, [r3, #7]
 8003652:	2b23      	cmp	r3, #35	; 0x23
 8003654:	d02e      	beq.n	80036b4 <find_and_parse_elp_cmd+0x128>
 8003656:	2b40      	cmp	r3, #64	; 0x40
 8003658:	d02c      	beq.n	80036b4 <find_and_parse_elp_cmd+0x128>
 800365a:	1928      	adds	r0, r5, r4
 800365c:	f7fd fab8 	bl	8000bd0 <str_to_uint32>
 8003660:	f8df 90b4 	ldr.w	r9, [pc, #180]	; 8003718 <find_and_parse_elp_cmd+0x18c>
 8003664:	42be      	cmp	r6, r7
 8003666:	f8c9 0000 	str.w	r0, [r9]
 800366a:	d320      	bcc.n	80036ae <find_and_parse_elp_cmd+0x122>
 800366c:	3406      	adds	r4, #6
 800366e:	442c      	add	r4, r5
 8003670:	e005      	b.n	800367e <find_and_parse_elp_cmd+0xf2>
 8003672:	7863      	ldrb	r3, [r4, #1]
 8003674:	2b21      	cmp	r3, #33	; 0x21
 8003676:	d023      	beq.n	80036c0 <find_and_parse_elp_cmd+0x134>
 8003678:	3701      	adds	r7, #1
 800367a:	42b7      	cmp	r7, r6
 800367c:	d817      	bhi.n	80036ae <find_and_parse_elp_cmd+0x122>
 800367e:	f814 0b01 	ldrb.w	r0, [r4], #1
 8003682:	2823      	cmp	r0, #35	; 0x23
 8003684:	d1f5      	bne.n	8003672 <find_and_parse_elp_cmd+0xe6>
 8003686:	f8d9 8088 	ldr.w	r8, [r9, #136]	; 0x88
 800368a:	f1b8 0f0f 	cmp.w	r8, #15
 800368e:	d828      	bhi.n	80036e2 <find_and_parse_elp_cmd+0x156>
 8003690:	7821      	ldrb	r1, [r4, #0]
 8003692:	7860      	ldrb	r0, [r4, #1]
 8003694:	f7fd fb6c 	bl	8000d70 <str_to_uint8>
 8003698:	f8d9 3088 	ldr.w	r3, [r9, #136]	; 0x88
 800369c:	44c8      	add	r8, r9
 800369e:	3701      	adds	r7, #1
 80036a0:	3301      	adds	r3, #1
 80036a2:	42b7      	cmp	r7, r6
 80036a4:	f888 008c 	strb.w	r0, [r8, #140]	; 0x8c
 80036a8:	f8c9 3088 	str.w	r3, [r9, #136]	; 0x88
 80036ac:	d9e7      	bls.n	800367e <find_and_parse_elp_cmd+0xf2>
 80036ae:	2001      	movs	r0, #1
 80036b0:	e8bd 83f8 	ldmia.w	sp!, {r3, r4, r5, r6, r7, r8, r9, pc}
 80036b4:	4b18      	ldr	r3, [pc, #96]	; (8003718 <find_and_parse_elp_cmd+0x18c>)
 80036b6:	2201      	movs	r2, #1
 80036b8:	601a      	str	r2, [r3, #0]
 80036ba:	2002      	movs	r0, #2
 80036bc:	e8bd 83f8 	ldmia.w	sp!, {r3, r4, r5, r6, r7, r8, r9, pc}
 80036c0:	19ea      	adds	r2, r5, r7
 80036c2:	4c16      	ldr	r4, [pc, #88]	; (800371c <find_and_parse_elp_cmd+0x190>)
 80036c4:	f812 3c04 	ldrb.w	r3, [r2, #-4]
 80036c8:	f812 1c05 	ldrb.w	r1, [r2, #-5]
 80036cc:	041b      	lsls	r3, r3, #16
 80036ce:	ea43 6301 	orr.w	r3, r3, r1, lsl #24
 80036d2:	f812 1c03 	ldrb.w	r1, [r2, #-3]
 80036d6:	4303      	orrs	r3, r0
 80036d8:	ea43 2301 	orr.w	r3, r3, r1, lsl #8
 80036dc:	ea34 0303 	bics.w	r3, r4, r3
 80036e0:	d004      	beq.n	80036ec <find_and_parse_elp_cmd+0x160>
 80036e2:	2301      	movs	r3, #1
 80036e4:	f8c9 3000 	str.w	r3, [r9]
 80036e8:	2002      	movs	r0, #2
 80036ea:	e777      	b.n	80035dc <find_and_parse_elp_cmd+0x50>
 80036ec:	f7fd fb40 	bl	8000d70 <str_to_uint8>
 80036f0:	1bf6      	subs	r6, r6, r7
 80036f2:	42b0      	cmp	r0, r6
 80036f4:	4602      	mov	r2, r0
 80036f6:	f8c9 0004 	str.w	r0, [r9, #4]
 80036fa:	d1f2      	bne.n	80036e2 <find_and_parse_elp_cmd+0x156>
 80036fc:	1c79      	adds	r1, r7, #1
 80036fe:	19c3      	adds	r3, r0, r7
 8003700:	428b      	cmp	r3, r1
 8003702:	d3d4      	bcc.n	80036ae <find_and_parse_elp_cmd+0x122>
 8003704:	4429      	add	r1, r5
 8003706:	4806      	ldr	r0, [pc, #24]	; (8003720 <find_and_parse_elp_cmd+0x194>)
 8003708:	f7fc fda6 	bl	8000258 <memcpy>
 800370c:	e7cf      	b.n	80036ae <find_and_parse_elp_cmd+0x122>
 800370e:	bf00      	nop
 8003710:	20008894 	.word	0x20008894
 8003714:	200087d4 	.word	0x200087d4
 8003718:	20008898 	.word	0x20008898
 800371c:	403f0000 	.word	0x403f0000
 8003720:	200088a0 	.word	0x200088a0

08003724 <protocol_response>:
 8003724:	2801      	cmp	r0, #1
 8003726:	d006      	beq.n	8003736 <protocol_response+0x12>
 8003728:	2803      	cmp	r0, #3
 800372a:	d00c      	beq.n	8003746 <protocol_response+0x22>
 800372c:	b138      	cbz	r0, 800373e <protocol_response+0x1a>
 800372e:	4808      	ldr	r0, [pc, #32]	; (8003750 <protocol_response+0x2c>)
 8003730:	2104      	movs	r1, #4
 8003732:	f001 b9a5 	b.w	8004a80 <USB_CDC_send_data>
 8003736:	4807      	ldr	r0, [pc, #28]	; (8003754 <protocol_response+0x30>)
 8003738:	2104      	movs	r1, #4
 800373a:	f001 b9a1 	b.w	8004a80 <USB_CDC_send_data>
 800373e:	4806      	ldr	r0, [pc, #24]	; (8003758 <protocol_response+0x34>)
 8003740:	2104      	movs	r1, #4
 8003742:	f001 b99d 	b.w	8004a80 <USB_CDC_send_data>
 8003746:	4805      	ldr	r0, [pc, #20]	; (800375c <protocol_response+0x38>)
 8003748:	2104      	movs	r1, #4
 800374a:	f001 b999 	b.w	8004a80 <USB_CDC_send_data>
 800374e:	bf00      	nop
 8003750:	20000030 	.word	0x20000030
 8003754:	20000034 	.word	0x20000034
 8003758:	2000002c 	.word	0x2000002c
 800375c:	20000028 	.word	0x20000028

08003760 <process_protocol_cmd>:
 8003760:	b508      	push	{r3, lr}
 8003762:	6803      	ldr	r3, [r0, #0]
 8003764:	f5b3 6f20 	cmp.w	r3, #2560	; 0xa00
 8003768:	d313      	bcc.n	8003792 <process_protocol_cmd+0x32>
 800376a:	f5b3 6f40 	cmp.w	r3, #3072	; 0xc00
 800376e:	d30c      	bcc.n	800378a <process_protocol_cmd+0x2a>
 8003770:	f003 4370 	and.w	r3, r3, #4026531840	; 0xf0000000
 8003774:	f1b3 4f70 	cmp.w	r3, #4026531840	; 0xf0000000
 8003778:	d00f      	beq.n	800379a <process_protocol_cmd+0x3a>
 800377a:	480a      	ldr	r0, [pc, #40]	; (80037a4 <process_protocol_cmd+0x44>)
 800377c:	2104      	movs	r1, #4
 800377e:	f001 f97f 	bl	8004a80 <USB_CDC_send_data>
 8003782:	e8bd 4008 	ldmia.w	sp!, {r3, lr}
 8003786:	f7ff be87 	b.w	8003498 <el_reset_state>
 800378a:	e8bd 4008 	ldmia.w	sp!, {r3, lr}
 800378e:	f7ff bccd 	b.w	800312c <cmd_specific_process>
 8003792:	e8bd 4008 	ldmia.w	sp!, {r3, lr}
 8003796:	f7ff bb75 	b.w	8002e84 <cmd_memchip_base_process>
 800379a:	e8bd 4008 	ldmia.w	sp!, {r3, lr}
 800379e:	f7ff bbdb 	b.w	8002f58 <process_raw_cmd>
 80037a2:	bf00      	nop
 80037a4:	20000030 	.word	0x20000030

080037a8 <erase_sector_memchip.constprop.0>:
 80037a8:	b5f8      	push	{r3, r4, r5, r6, r7, lr}
 80037aa:	4c3e      	ldr	r4, [pc, #248]	; (80038a4 <erase_sector_memchip.constprop.0+0xfc>)
 80037ac:	4e3e      	ldr	r6, [pc, #248]	; (80038a8 <erase_sector_memchip.constprop.0+0x100>)
 80037ae:	4605      	mov	r5, r0
 80037b0:	f04f 37ff 	mov.w	r7, #4294967295	; 0xffffffff
 80037b4:	69a3      	ldr	r3, [r4, #24]
 80037b6:	f443 3380 	orr.w	r3, r3, #65536	; 0x10000
 80037ba:	61a3      	str	r3, [r4, #24]
 80037bc:	2105      	movs	r1, #5
 80037be:	4630      	mov	r0, r6
 80037c0:	f000 fb28 	bl	8003e14 <SPI_transmit_byte>
 80037c4:	4630      	mov	r0, r6
 80037c6:	f000 fb27 	bl	8003e18 <SPI_receive_byte>
 80037ca:	69a3      	ldr	r3, [r4, #24]
 80037cc:	3f01      	subs	r7, #1
 80037ce:	f043 0301 	orr.w	r3, r3, #1
 80037d2:	61a3      	str	r3, [r4, #24]
 80037d4:	b10f      	cbz	r7, 80037da <erase_sector_memchip.constprop.0+0x32>
 80037d6:	07c1      	lsls	r1, r0, #31
 80037d8:	d4ec      	bmi.n	80037b4 <erase_sector_memchip.constprop.0+0xc>
 80037da:	4c32      	ldr	r4, [pc, #200]	; (80038a4 <erase_sector_memchip.constprop.0+0xfc>)
 80037dc:	4832      	ldr	r0, [pc, #200]	; (80038a8 <erase_sector_memchip.constprop.0+0x100>)
 80037de:	69a3      	ldr	r3, [r4, #24]
 80037e0:	f443 3380 	orr.w	r3, r3, #65536	; 0x10000
 80037e4:	2106      	movs	r1, #6
 80037e6:	61a3      	str	r3, [r4, #24]
 80037e8:	f000 fb14 	bl	8003e14 <SPI_transmit_byte>
 80037ec:	69a3      	ldr	r3, [r4, #24]
 80037ee:	482e      	ldr	r0, [pc, #184]	; (80038a8 <erase_sector_memchip.constprop.0+0x100>)
 80037f0:	f043 0301 	orr.w	r3, r3, #1
 80037f4:	61a3      	str	r3, [r4, #24]
 80037f6:	69a3      	ldr	r3, [r4, #24]
 80037f8:	f443 3380 	orr.w	r3, r3, #65536	; 0x10000
 80037fc:	61a3      	str	r3, [r4, #24]
 80037fe:	2120      	movs	r1, #32
 8003800:	f000 fb08 	bl	8003e14 <SPI_transmit_byte>
 8003804:	f3c5 4107 	ubfx	r1, r5, #16, #8
 8003808:	4827      	ldr	r0, [pc, #156]	; (80038a8 <erase_sector_memchip.constprop.0+0x100>)
 800380a:	f000 fb03 	bl	8003e14 <SPI_transmit_byte>
 800380e:	f3c5 2107 	ubfx	r1, r5, #8, #8
 8003812:	4825      	ldr	r0, [pc, #148]	; (80038a8 <erase_sector_memchip.constprop.0+0x100>)
 8003814:	f000 fafe 	bl	8003e14 <SPI_transmit_byte>
 8003818:	b2e9      	uxtb	r1, r5
 800381a:	4823      	ldr	r0, [pc, #140]	; (80038a8 <erase_sector_memchip.constprop.0+0x100>)
 800381c:	4d22      	ldr	r5, [pc, #136]	; (80038a8 <erase_sector_memchip.constprop.0+0x100>)
 800381e:	f000 faf9 	bl	8003e14 <SPI_transmit_byte>
 8003822:	69a3      	ldr	r3, [r4, #24]
 8003824:	4820      	ldr	r0, [pc, #128]	; (80038a8 <erase_sector_memchip.constprop.0+0x100>)
 8003826:	f043 0301 	orr.w	r3, r3, #1
 800382a:	61a3      	str	r3, [r4, #24]
 800382c:	69a3      	ldr	r3, [r4, #24]
 800382e:	f443 3380 	orr.w	r3, r3, #65536	; 0x10000
 8003832:	61a3      	str	r3, [r4, #24]
 8003834:	2104      	movs	r1, #4
 8003836:	f000 faed 	bl	8003e14 <SPI_transmit_byte>
 800383a:	69a3      	ldr	r3, [r4, #24]
 800383c:	f043 0301 	orr.w	r3, r3, #1
 8003840:	61a3      	str	r3, [r4, #24]
 8003842:	f04f 36ff 	mov.w	r6, #4294967295	; 0xffffffff
 8003846:	69a3      	ldr	r3, [r4, #24]
 8003848:	f443 3380 	orr.w	r3, r3, #65536	; 0x10000
 800384c:	61a3      	str	r3, [r4, #24]
 800384e:	2105      	movs	r1, #5
 8003850:	4628      	mov	r0, r5
 8003852:	f000 fadf 	bl	8003e14 <SPI_transmit_byte>
 8003856:	4628      	mov	r0, r5
 8003858:	f000 fade 	bl	8003e18 <SPI_receive_byte>
 800385c:	69a3      	ldr	r3, [r4, #24]
 800385e:	3e01      	subs	r6, #1
 8003860:	f043 0301 	orr.w	r3, r3, #1
 8003864:	61a3      	str	r3, [r4, #24]
 8003866:	b10e      	cbz	r6, 800386c <erase_sector_memchip.constprop.0+0xc4>
 8003868:	07c2      	lsls	r2, r0, #31
 800386a:	d4ec      	bmi.n	8003846 <erase_sector_memchip.constprop.0+0x9e>
 800386c:	4c0d      	ldr	r4, [pc, #52]	; (80038a4 <erase_sector_memchip.constprop.0+0xfc>)
 800386e:	4d0e      	ldr	r5, [pc, #56]	; (80038a8 <erase_sector_memchip.constprop.0+0x100>)
 8003870:	f04f 36ff 	mov.w	r6, #4294967295	; 0xffffffff
 8003874:	69a3      	ldr	r3, [r4, #24]
 8003876:	f443 3380 	orr.w	r3, r3, #65536	; 0x10000
 800387a:	61a3      	str	r3, [r4, #24]
 800387c:	2105      	movs	r1, #5
 800387e:	4628      	mov	r0, r5
 8003880:	f000 fac8 	bl	8003e14 <SPI_transmit_byte>
 8003884:	4628      	mov	r0, r5
 8003886:	f000 fac7 	bl	8003e18 <SPI_receive_byte>
 800388a:	69a3      	ldr	r3, [r4, #24]
 800388c:	3e01      	subs	r6, #1
 800388e:	f043 0301 	orr.w	r3, r3, #1
 8003892:	f000 0201 	and.w	r2, r0, #1
 8003896:	61a3      	str	r3, [r4, #24]
 8003898:	b10e      	cbz	r6, 800389e <erase_sector_memchip.constprop.0+0xf6>
 800389a:	07c3      	lsls	r3, r0, #31
 800389c:	d4ea      	bmi.n	8003874 <erase_sector_memchip.constprop.0+0xcc>
 800389e:	4610      	mov	r0, r2
 80038a0:	bdf8      	pop	{r3, r4, r5, r6, r7, pc}
 80038a2:	bf00      	nop
 80038a4:	40020400 	.word	0x40020400
 80038a8:	40013000 	.word	0x40013000

080038ac <programm_memchip_long.constprop.0>:
 80038ac:	e92d 4ff0 	stmdb	sp!, {r4, r5, r6, r7, r8, r9, sl, fp, lr}
 80038b0:	f5b2 7f80 	cmp.w	r2, #256	; 0x100
 80038b4:	b087      	sub	sp, #28
 80038b6:	e9cd 2002 	strd	r2, r0, [sp, #8]
 80038ba:	4688      	mov	r8, r1
 80038bc:	f240 8135 	bls.w	8003b2a <programm_memchip_long.constprop.0+0x27e>
 80038c0:	f46f 7480 	mvn.w	r4, #256	; 0x100
 80038c4:	1913      	adds	r3, r2, r4
 80038c6:	f023 0aff 	bic.w	sl, r3, #255	; 0xff
 80038ca:	9305      	str	r3, [sp, #20]
 80038cc:	448a      	add	sl, r1
 80038ce:	0a1b      	lsrs	r3, r3, #8
 80038d0:	f50a 7200 	add.w	r2, sl, #512	; 0x200
 80038d4:	9304      	str	r3, [sp, #16]
 80038d6:	f8df 9264 	ldr.w	r9, [pc, #612]	; 8003b3c <programm_memchip_long.constprop.0+0x290>
 80038da:	f8df b264 	ldr.w	fp, [pc, #612]	; 8003b40 <programm_memchip_long.constprop.0+0x294>
 80038de:	4c99      	ldr	r4, [pc, #612]	; (8003b44 <programm_memchip_long.constprop.0+0x298>)
 80038e0:	9200      	str	r2, [sp, #0]
 80038e2:	f5a0 7380 	sub.w	r3, r0, #256	; 0x100
 80038e6:	f501 7680 	add.w	r6, r1, #256	; 0x100
 80038ea:	9301      	str	r3, [sp, #4]
 80038ec:	9b01      	ldr	r3, [sp, #4]
 80038ee:	eba3 0708 	sub.w	r7, r3, r8
 80038f2:	4437      	add	r7, r6
 80038f4:	f5a6 7580 	sub.w	r5, r6, #256	; 0x100
 80038f8:	f04f 3aff 	mov.w	sl, #4294967295	; 0xffffffff
 80038fc:	f8db 3018 	ldr.w	r3, [fp, #24]
 8003900:	f443 3380 	orr.w	r3, r3, #65536	; 0x10000
 8003904:	f8cb 3018 	str.w	r3, [fp, #24]
 8003908:	2105      	movs	r1, #5
 800390a:	4620      	mov	r0, r4
 800390c:	f000 fa82 	bl	8003e14 <SPI_transmit_byte>
 8003910:	4620      	mov	r0, r4
 8003912:	f000 fa81 	bl	8003e18 <SPI_receive_byte>
 8003916:	f8db 3018 	ldr.w	r3, [fp, #24]
 800391a:	f10a 3aff 	add.w	sl, sl, #4294967295	; 0xffffffff
 800391e:	f043 0301 	orr.w	r3, r3, #1
 8003922:	f8cb 3018 	str.w	r3, [fp, #24]
 8003926:	f1ba 0f00 	cmp.w	sl, #0
 800392a:	d001      	beq.n	8003930 <programm_memchip_long.constprop.0+0x84>
 800392c:	07c0      	lsls	r0, r0, #31
 800392e:	d4e5      	bmi.n	80038fc <programm_memchip_long.constprop.0+0x50>
 8003930:	f8db 3018 	ldr.w	r3, [fp, #24]
 8003934:	f443 3380 	orr.w	r3, r3, #65536	; 0x10000
 8003938:	f8cb 3018 	str.w	r3, [fp, #24]
 800393c:	2106      	movs	r1, #6
 800393e:	4620      	mov	r0, r4
 8003940:	f000 fa68 	bl	8003e14 <SPI_transmit_byte>
 8003944:	f8db 3018 	ldr.w	r3, [fp, #24]
 8003948:	f043 0301 	orr.w	r3, r3, #1
 800394c:	f8cb 3018 	str.w	r3, [fp, #24]
 8003950:	f44f 7380 	mov.w	r3, #256	; 0x100
 8003954:	f8c9 3008 	str.w	r3, [r9, #8]
 8003958:	f8db 3018 	ldr.w	r3, [fp, #24]
 800395c:	f443 3380 	orr.w	r3, r3, #65536	; 0x10000
 8003960:	f8cb 3018 	str.w	r3, [fp, #24]
 8003964:	2102      	movs	r1, #2
 8003966:	4620      	mov	r0, r4
 8003968:	f000 fa54 	bl	8003e14 <SPI_transmit_byte>
 800396c:	f3c7 4107 	ubfx	r1, r7, #16, #8
 8003970:	4620      	mov	r0, r4
 8003972:	f000 fa4f 	bl	8003e14 <SPI_transmit_byte>
 8003976:	f3c7 2107 	ubfx	r1, r7, #8, #8
 800397a:	4620      	mov	r0, r4
 800397c:	f000 fa4a 	bl	8003e14 <SPI_transmit_byte>
 8003980:	b2f9      	uxtb	r1, r7
 8003982:	4620      	mov	r0, r4
 8003984:	f000 fa46 	bl	8003e14 <SPI_transmit_byte>
 8003988:	f815 1b01 	ldrb.w	r1, [r5], #1
 800398c:	4620      	mov	r0, r4
 800398e:	f000 fa41 	bl	8003e14 <SPI_transmit_byte>
 8003992:	42b5      	cmp	r5, r6
 8003994:	d1f8      	bne.n	8003988 <programm_memchip_long.constprop.0+0xdc>
 8003996:	f8db 3018 	ldr.w	r3, [fp, #24]
 800399a:	f043 0301 	orr.w	r3, r3, #1
 800399e:	f8cb 3018 	str.w	r3, [fp, #24]
 80039a2:	f8db 3018 	ldr.w	r3, [fp, #24]
 80039a6:	f443 3380 	orr.w	r3, r3, #65536	; 0x10000
 80039aa:	f8cb 3018 	str.w	r3, [fp, #24]
 80039ae:	2104      	movs	r1, #4
 80039b0:	4620      	mov	r0, r4
 80039b2:	f000 fa2f 	bl	8003e14 <SPI_transmit_byte>
 80039b6:	f8db 3018 	ldr.w	r3, [fp, #24]
 80039ba:	f043 0301 	orr.w	r3, r3, #1
 80039be:	f04f 35ff 	mov.w	r5, #4294967295	; 0xffffffff
 80039c2:	f8cb 3018 	str.w	r3, [fp, #24]
 80039c6:	f8db 3018 	ldr.w	r3, [fp, #24]
 80039ca:	f443 3380 	orr.w	r3, r3, #65536	; 0x10000
 80039ce:	f8cb 3018 	str.w	r3, [fp, #24]
 80039d2:	2105      	movs	r1, #5
 80039d4:	4620      	mov	r0, r4
 80039d6:	f000 fa1d 	bl	8003e14 <SPI_transmit_byte>
 80039da:	4620      	mov	r0, r4
 80039dc:	f000 fa1c 	bl	8003e18 <SPI_receive_byte>
 80039e0:	f8db 3018 	ldr.w	r3, [fp, #24]
 80039e4:	3d01      	subs	r5, #1
 80039e6:	f043 0301 	orr.w	r3, r3, #1
 80039ea:	f000 0201 	and.w	r2, r0, #1
 80039ee:	f8cb 3018 	str.w	r3, [fp, #24]
 80039f2:	b10d      	cbz	r5, 80039f8 <programm_memchip_long.constprop.0+0x14c>
 80039f4:	07c1      	lsls	r1, r0, #31
 80039f6:	d4e6      	bmi.n	80039c6 <programm_memchip_long.constprop.0+0x11a>
 80039f8:	f002 03ff 	and.w	r3, r2, #255	; 0xff
 80039fc:	b90a      	cbnz	r2, 8003a02 <programm_memchip_long.constprop.0+0x156>
 80039fe:	f8c9 3008 	str.w	r3, [r9, #8]
 8003a02:	9b00      	ldr	r3, [sp, #0]
 8003a04:	f506 7680 	add.w	r6, r6, #256	; 0x100
 8003a08:	429e      	cmp	r6, r3
 8003a0a:	f47f af6f 	bne.w	80038ec <programm_memchip_long.constprop.0+0x40>
 8003a0e:	9b03      	ldr	r3, [sp, #12]
 8003a10:	9904      	ldr	r1, [sp, #16]
 8003a12:	f503 7080 	add.w	r0, r3, #256	; 0x100
 8003a16:	9b05      	ldr	r3, [sp, #20]
 8003a18:	f023 03ff 	bic.w	r3, r3, #255	; 0xff
 8003a1c:	18c3      	adds	r3, r0, r3
 8003a1e:	9303      	str	r3, [sp, #12]
 8003a20:	9b02      	ldr	r3, [sp, #8]
 8003a22:	f5a3 7280 	sub.w	r2, r3, #256	; 0x100
 8003a26:	1c4b      	adds	r3, r1, #1
 8003a28:	eb08 2803 	add.w	r8, r8, r3, lsl #8
 8003a2c:	ebc1 6301 	rsb	r3, r1, r1, lsl #24
 8003a30:	eb02 2303 	add.w	r3, r2, r3, lsl #8
 8003a34:	9302      	str	r3, [sp, #8]
 8003a36:	4c42      	ldr	r4, [pc, #264]	; (8003b40 <programm_memchip_long.constprop.0+0x294>)
 8003a38:	4d42      	ldr	r5, [pc, #264]	; (8003b44 <programm_memchip_long.constprop.0+0x298>)
 8003a3a:	f04f 36ff 	mov.w	r6, #4294967295	; 0xffffffff
 8003a3e:	69a3      	ldr	r3, [r4, #24]
 8003a40:	f443 3380 	orr.w	r3, r3, #65536	; 0x10000
 8003a44:	61a3      	str	r3, [r4, #24]
 8003a46:	2105      	movs	r1, #5
 8003a48:	4628      	mov	r0, r5
 8003a4a:	f000 f9e3 	bl	8003e14 <SPI_transmit_byte>
 8003a4e:	4628      	mov	r0, r5
 8003a50:	f000 f9e2 	bl	8003e18 <SPI_receive_byte>
 8003a54:	69a3      	ldr	r3, [r4, #24]
 8003a56:	3e01      	subs	r6, #1
 8003a58:	f043 0301 	orr.w	r3, r3, #1
 8003a5c:	61a3      	str	r3, [r4, #24]
 8003a5e:	b10e      	cbz	r6, 8003a64 <programm_memchip_long.constprop.0+0x1b8>
 8003a60:	07c2      	lsls	r2, r0, #31
 8003a62:	d4ec      	bmi.n	8003a3e <programm_memchip_long.constprop.0+0x192>
 8003a64:	4c36      	ldr	r4, [pc, #216]	; (8003b40 <programm_memchip_long.constprop.0+0x294>)
 8003a66:	4837      	ldr	r0, [pc, #220]	; (8003b44 <programm_memchip_long.constprop.0+0x298>)
 8003a68:	69a3      	ldr	r3, [r4, #24]
 8003a6a:	4d36      	ldr	r5, [pc, #216]	; (8003b44 <programm_memchip_long.constprop.0+0x298>)
 8003a6c:	f443 3380 	orr.w	r3, r3, #65536	; 0x10000
 8003a70:	61a3      	str	r3, [r4, #24]
 8003a72:	2106      	movs	r1, #6
 8003a74:	f000 f9ce 	bl	8003e14 <SPI_transmit_byte>
 8003a78:	69a3      	ldr	r3, [r4, #24]
 8003a7a:	9e02      	ldr	r6, [sp, #8]
 8003a7c:	4831      	ldr	r0, [pc, #196]	; (8003b44 <programm_memchip_long.constprop.0+0x298>)
 8003a7e:	f043 0301 	orr.w	r3, r3, #1
 8003a82:	61a3      	str	r3, [r4, #24]
 8003a84:	f8c9 6008 	str.w	r6, [r9, #8]
 8003a88:	69a3      	ldr	r3, [r4, #24]
 8003a8a:	f443 3380 	orr.w	r3, r3, #65536	; 0x10000
 8003a8e:	61a3      	str	r3, [r4, #24]
 8003a90:	2102      	movs	r1, #2
 8003a92:	f000 f9bf 	bl	8003e14 <SPI_transmit_byte>
 8003a96:	9c03      	ldr	r4, [sp, #12]
 8003a98:	482a      	ldr	r0, [pc, #168]	; (8003b44 <programm_memchip_long.constprop.0+0x298>)
 8003a9a:	f3c4 4107 	ubfx	r1, r4, #16, #8
 8003a9e:	f000 f9b9 	bl	8003e14 <SPI_transmit_byte>
 8003aa2:	f3c4 2107 	ubfx	r1, r4, #8, #8
 8003aa6:	4827      	ldr	r0, [pc, #156]	; (8003b44 <programm_memchip_long.constprop.0+0x298>)
 8003aa8:	f000 f9b4 	bl	8003e14 <SPI_transmit_byte>
 8003aac:	b2e1      	uxtb	r1, r4
 8003aae:	4825      	ldr	r0, [pc, #148]	; (8003b44 <programm_memchip_long.constprop.0+0x298>)
 8003ab0:	f000 f9b0 	bl	8003e14 <SPI_transmit_byte>
 8003ab4:	2400      	movs	r4, #0
 8003ab6:	f818 1b01 	ldrb.w	r1, [r8], #1
 8003aba:	4628      	mov	r0, r5
 8003abc:	3401      	adds	r4, #1
 8003abe:	f000 f9a9 	bl	8003e14 <SPI_transmit_byte>
 8003ac2:	42b4      	cmp	r4, r6
 8003ac4:	d3f7      	bcc.n	8003ab6 <programm_memchip_long.constprop.0+0x20a>
 8003ac6:	4c1e      	ldr	r4, [pc, #120]	; (8003b40 <programm_memchip_long.constprop.0+0x294>)
 8003ac8:	481e      	ldr	r0, [pc, #120]	; (8003b44 <programm_memchip_long.constprop.0+0x298>)
 8003aca:	69a3      	ldr	r3, [r4, #24]
 8003acc:	4d1d      	ldr	r5, [pc, #116]	; (8003b44 <programm_memchip_long.constprop.0+0x298>)
 8003ace:	f043 0301 	orr.w	r3, r3, #1
 8003ad2:	61a3      	str	r3, [r4, #24]
 8003ad4:	69a3      	ldr	r3, [r4, #24]
 8003ad6:	f443 3380 	orr.w	r3, r3, #65536	; 0x10000
 8003ada:	61a3      	str	r3, [r4, #24]
 8003adc:	2104      	movs	r1, #4
 8003ade:	f000 f999 	bl	8003e14 <SPI_transmit_byte>
 8003ae2:	69a3      	ldr	r3, [r4, #24]
 8003ae4:	f043 0301 	orr.w	r3, r3, #1
 8003ae8:	61a3      	str	r3, [r4, #24]
 8003aea:	f04f 36ff 	mov.w	r6, #4294967295	; 0xffffffff
 8003aee:	69a3      	ldr	r3, [r4, #24]
 8003af0:	f443 3380 	orr.w	r3, r3, #65536	; 0x10000
 8003af4:	61a3      	str	r3, [r4, #24]
 8003af6:	2105      	movs	r1, #5
 8003af8:	4628      	mov	r0, r5
 8003afa:	f000 f98b 	bl	8003e14 <SPI_transmit_byte>
 8003afe:	4628      	mov	r0, r5
 8003b00:	f000 f98a 	bl	8003e18 <SPI_receive_byte>
 8003b04:	69a3      	ldr	r3, [r4, #24]
 8003b06:	3e01      	subs	r6, #1
 8003b08:	f043 0301 	orr.w	r3, r3, #1
 8003b0c:	f000 0201 	and.w	r2, r0, #1
 8003b10:	61a3      	str	r3, [r4, #24]
 8003b12:	b10e      	cbz	r6, 8003b18 <programm_memchip_long.constprop.0+0x26c>
 8003b14:	07c3      	lsls	r3, r0, #31
 8003b16:	d4ea      	bmi.n	8003aee <programm_memchip_long.constprop.0+0x242>
 8003b18:	f002 03ff 	and.w	r3, r2, #255	; 0xff
 8003b1c:	b932      	cbnz	r2, 8003b2c <programm_memchip_long.constprop.0+0x280>
 8003b1e:	2000      	movs	r0, #0
 8003b20:	f8c9 3008 	str.w	r3, [r9, #8]
 8003b24:	b007      	add	sp, #28
 8003b26:	e8bd 8ff0 	ldmia.w	sp!, {r4, r5, r6, r7, r8, r9, sl, fp, pc}
 8003b2a:	b91a      	cbnz	r2, 8003b34 <programm_memchip_long.constprop.0+0x288>
 8003b2c:	2000      	movs	r0, #0
 8003b2e:	b007      	add	sp, #28
 8003b30:	e8bd 8ff0 	ldmia.w	sp!, {r4, r5, r6, r7, r8, r9, sl, fp, pc}
 8003b34:	f8df 9004 	ldr.w	r9, [pc, #4]	; 8003b3c <programm_memchip_long.constprop.0+0x290>
 8003b38:	e77d      	b.n	8003a36 <programm_memchip_long.constprop.0+0x18a>
 8003b3a:	bf00      	nop
 8003b3c:	20008934 	.word	0x20008934
 8003b40:	40020400 	.word	0x40020400
 8003b44:	40013000 	.word	0x40013000

08003b48 <erase_chip_memchip>:
 8003b48:	b570      	push	{r4, r5, r6, lr}
 8003b4a:	4c1f      	ldr	r4, [pc, #124]	; (8003bc8 <erase_chip_memchip+0x80>)
 8003b4c:	481f      	ldr	r0, [pc, #124]	; (8003bcc <erase_chip_memchip+0x84>)
 8003b4e:	69a3      	ldr	r3, [r4, #24]
 8003b50:	4d1e      	ldr	r5, [pc, #120]	; (8003bcc <erase_chip_memchip+0x84>)
 8003b52:	f443 3380 	orr.w	r3, r3, #65536	; 0x10000
 8003b56:	2106      	movs	r1, #6
 8003b58:	61a3      	str	r3, [r4, #24]
 8003b5a:	f000 f95b 	bl	8003e14 <SPI_transmit_byte>
 8003b5e:	69a3      	ldr	r3, [r4, #24]
 8003b60:	481a      	ldr	r0, [pc, #104]	; (8003bcc <erase_chip_memchip+0x84>)
 8003b62:	f043 0301 	orr.w	r3, r3, #1
 8003b66:	61a3      	str	r3, [r4, #24]
 8003b68:	69a3      	ldr	r3, [r4, #24]
 8003b6a:	f443 3380 	orr.w	r3, r3, #65536	; 0x10000
 8003b6e:	21c7      	movs	r1, #199	; 0xc7
 8003b70:	61a3      	str	r3, [r4, #24]
 8003b72:	f000 f94f 	bl	8003e14 <SPI_transmit_byte>
 8003b76:	69a3      	ldr	r3, [r4, #24]
 8003b78:	4814      	ldr	r0, [pc, #80]	; (8003bcc <erase_chip_memchip+0x84>)
 8003b7a:	f043 0301 	orr.w	r3, r3, #1
 8003b7e:	61a3      	str	r3, [r4, #24]
 8003b80:	69a3      	ldr	r3, [r4, #24]
 8003b82:	f443 3380 	orr.w	r3, r3, #65536	; 0x10000
 8003b86:	61a3      	str	r3, [r4, #24]
 8003b88:	2104      	movs	r1, #4
 8003b8a:	f000 f943 	bl	8003e14 <SPI_transmit_byte>
 8003b8e:	69a3      	ldr	r3, [r4, #24]
 8003b90:	f043 0301 	orr.w	r3, r3, #1
 8003b94:	61a3      	str	r3, [r4, #24]
 8003b96:	f04f 36ff 	mov.w	r6, #4294967295	; 0xffffffff
 8003b9a:	69a3      	ldr	r3, [r4, #24]
 8003b9c:	f443 3380 	orr.w	r3, r3, #65536	; 0x10000
 8003ba0:	61a3      	str	r3, [r4, #24]
 8003ba2:	2105      	movs	r1, #5
 8003ba4:	4628      	mov	r0, r5
 8003ba6:	f000 f935 	bl	8003e14 <SPI_transmit_byte>
 8003baa:	4628      	mov	r0, r5
 8003bac:	f000 f934 	bl	8003e18 <SPI_receive_byte>
 8003bb0:	69a3      	ldr	r3, [r4, #24]
 8003bb2:	3e01      	subs	r6, #1
 8003bb4:	f043 0301 	orr.w	r3, r3, #1
 8003bb8:	f000 0201 	and.w	r2, r0, #1
 8003bbc:	61a3      	str	r3, [r4, #24]
 8003bbe:	b10e      	cbz	r6, 8003bc4 <erase_chip_memchip+0x7c>
 8003bc0:	07c3      	lsls	r3, r0, #31
 8003bc2:	d4ea      	bmi.n	8003b9a <erase_chip_memchip+0x52>
 8003bc4:	4610      	mov	r0, r2
 8003bc6:	bd70      	pop	{r4, r5, r6, pc}
 8003bc8:	40020400 	.word	0x40020400
 8003bcc:	40013000 	.word	0x40013000

08003bd0 <memchip_read>:
 8003bd0:	b5f8      	push	{r3, r4, r5, r6, r7, lr}
 8003bd2:	4f18      	ldr	r7, [pc, #96]	; (8003c34 <memchip_read+0x64>)
 8003bd4:	60ba      	str	r2, [r7, #8]
 8003bd6:	b90a      	cbnz	r2, 8003bdc <memchip_read+0xc>
 8003bd8:	2000      	movs	r0, #0
 8003bda:	bdf8      	pop	{r3, r4, r5, r6, r7, pc}
 8003bdc:	460c      	mov	r4, r1
 8003bde:	4916      	ldr	r1, [pc, #88]	; (8003c38 <memchip_read+0x68>)
 8003be0:	698b      	ldr	r3, [r1, #24]
 8003be2:	f443 3380 	orr.w	r3, r3, #65536	; 0x10000
 8003be6:	4606      	mov	r6, r0
 8003be8:	618b      	str	r3, [r1, #24]
 8003bea:	4814      	ldr	r0, [pc, #80]	; (8003c3c <memchip_read+0x6c>)
 8003bec:	2103      	movs	r1, #3
 8003bee:	18a5      	adds	r5, r4, r2
 8003bf0:	f000 f910 	bl	8003e14 <SPI_transmit_byte>
 8003bf4:	f3c6 4107 	ubfx	r1, r6, #16, #8
 8003bf8:	4810      	ldr	r0, [pc, #64]	; (8003c3c <memchip_read+0x6c>)
 8003bfa:	f000 f90b 	bl	8003e14 <SPI_transmit_byte>
 8003bfe:	f3c6 2107 	ubfx	r1, r6, #8, #8
 8003c02:	480e      	ldr	r0, [pc, #56]	; (8003c3c <memchip_read+0x6c>)
 8003c04:	f000 f906 	bl	8003e14 <SPI_transmit_byte>
 8003c08:	b2f1      	uxtb	r1, r6
 8003c0a:	480c      	ldr	r0, [pc, #48]	; (8003c3c <memchip_read+0x6c>)
 8003c0c:	4e0b      	ldr	r6, [pc, #44]	; (8003c3c <memchip_read+0x6c>)
 8003c0e:	f000 f901 	bl	8003e14 <SPI_transmit_byte>
 8003c12:	4630      	mov	r0, r6
 8003c14:	f000 f900 	bl	8003e18 <SPI_receive_byte>
 8003c18:	f804 0b01 	strb.w	r0, [r4], #1
 8003c1c:	42ac      	cmp	r4, r5
 8003c1e:	d1f8      	bne.n	8003c12 <memchip_read+0x42>
 8003c20:	4a05      	ldr	r2, [pc, #20]	; (8003c38 <memchip_read+0x68>)
 8003c22:	6993      	ldr	r3, [r2, #24]
 8003c24:	2100      	movs	r1, #0
 8003c26:	f043 0301 	orr.w	r3, r3, #1
 8003c2a:	60b9      	str	r1, [r7, #8]
 8003c2c:	2000      	movs	r0, #0
 8003c2e:	6193      	str	r3, [r2, #24]
 8003c30:	bdf8      	pop	{r3, r4, r5, r6, r7, pc}
 8003c32:	bf00      	nop
 8003c34:	20008934 	.word	0x20008934
 8003c38:	40020400 	.word	0x40020400
 8003c3c:	40013000 	.word	0x40013000

08003c40 <memchip_write>:
 8003c40:	f7ff be34 	b.w	80038ac <programm_memchip_long.constprop.0>

08003c44 <memchip_rewrite>:
 8003c44:	b570      	push	{r4, r5, r6, lr}
 8003c46:	4604      	mov	r4, r0
 8003c48:	460d      	mov	r5, r1
 8003c4a:	4616      	mov	r6, r2
 8003c4c:	f7ff fdac 	bl	80037a8 <erase_sector_memchip.constprop.0>
 8003c50:	2801      	cmp	r0, #1
 8003c52:	d006      	beq.n	8003c62 <memchip_rewrite+0x1e>
 8003c54:	4632      	mov	r2, r6
 8003c56:	4629      	mov	r1, r5
 8003c58:	4620      	mov	r0, r4
 8003c5a:	e8bd 4070 	ldmia.w	sp!, {r4, r5, r6, lr}
 8003c5e:	f7ff be25 	b.w	80038ac <programm_memchip_long.constprop.0>
 8003c62:	bd70      	pop	{r4, r5, r6, pc}

08003c64 <memchip_erase_block_within_address>:
 8003c64:	f7ff bda0 	b.w	80037a8 <erase_sector_memchip.constprop.0>

08003c68 <memchip_get_pending_length>:
 8003c68:	4b01      	ldr	r3, [pc, #4]	; (8003c70 <memchip_get_pending_length+0x8>)
 8003c6a:	6858      	ldr	r0, [r3, #4]
 8003c6c:	4770      	bx	lr
 8003c6e:	bf00      	nop
 8003c70:	20008934 	.word	0x20008934

08003c74 <memchip_get_address>:
 8003c74:	4b01      	ldr	r3, [pc, #4]	; (8003c7c <memchip_get_address+0x8>)
 8003c76:	6818      	ldr	r0, [r3, #0]
 8003c78:	4770      	bx	lr
 8003c7a:	bf00      	nop
 8003c7c:	20008934 	.word	0x20008934

08003c80 <memchip_set_pending_data>:
 8003c80:	4b01      	ldr	r3, [pc, #4]	; (8003c88 <memchip_set_pending_data+0x8>)
 8003c82:	6058      	str	r0, [r3, #4]
 8003c84:	4770      	bx	lr
 8003c86:	bf00      	nop
 8003c88:	20008934 	.word	0x20008934

08003c8c <memchip_deduct_pending_data>:
 8003c8c:	4b03      	ldr	r3, [pc, #12]	; (8003c9c <memchip_deduct_pending_data+0x10>)
 8003c8e:	e9d3 1200 	ldrd	r1, r2, [r3]
 8003c92:	4401      	add	r1, r0
 8003c94:	1a10      	subs	r0, r2, r0
 8003c96:	e9c3 1000 	strd	r1, r0, [r3]
 8003c9a:	4770      	bx	lr
 8003c9c:	20008934 	.word	0x20008934

08003ca0 <memchip_set_address>:
 8003ca0:	4b01      	ldr	r3, [pc, #4]	; (8003ca8 <memchip_set_address+0x8>)
 8003ca2:	6018      	str	r0, [r3, #0]
 8003ca4:	4770      	bx	lr
 8003ca6:	bf00      	nop
 8003ca8:	20008934 	.word	0x20008934

08003cac <SPI_1xx_start>:
 8003cac:	b410      	push	{r4}
 8003cae:	2400      	movs	r4, #0
 8003cb0:	6004      	str	r4, [r0, #0]
 8003cb2:	6044      	str	r4, [r0, #4]
 8003cb4:	6804      	ldr	r4, [r0, #0]
 8003cb6:	f89d c004 	ldrb.w	ip, [sp, #4]
 8003cba:	4323      	orrs	r3, r4
 8003cbc:	6003      	str	r3, [r0, #0]
 8003cbe:	6844      	ldr	r4, [r0, #4]
 8003cc0:	f89d 3008 	ldrb.w	r3, [sp, #8]
 8003cc4:	4323      	orrs	r3, r4
 8003cc6:	6043      	str	r3, [r0, #4]
 8003cc8:	b979      	cbnz	r1, 8003cea <SPI_1xx_start+0x3e>
 8003cca:	6803      	ldr	r3, [r0, #0]
 8003ccc:	f043 0304 	orr.w	r3, r3, #4
 8003cd0:	6003      	str	r3, [r0, #0]
 8003cd2:	6803      	ldr	r3, [r0, #0]
 8003cd4:	f043 0338 	orr.w	r3, r3, #56	; 0x38
 8003cd8:	6003      	str	r3, [r0, #0]
 8003cda:	6803      	ldr	r3, [r0, #0]
 8003cdc:	f443 7380 	orr.w	r3, r3, #256	; 0x100
 8003ce0:	6003      	str	r3, [r0, #0]
 8003ce2:	6803      	ldr	r3, [r0, #0]
 8003ce4:	f443 7300 	orr.w	r3, r3, #512	; 0x200
 8003ce8:	6003      	str	r3, [r0, #0]
 8003cea:	6803      	ldr	r3, [r0, #0]
 8003cec:	ea4c 0303 	orr.w	r3, ip, r3
 8003cf0:	6003      	str	r3, [r0, #0]
 8003cf2:	6803      	ldr	r3, [r0, #0]
 8003cf4:	f023 0302 	bic.w	r3, r3, #2
 8003cf8:	6003      	str	r3, [r0, #0]
 8003cfa:	6803      	ldr	r3, [r0, #0]
 8003cfc:	2a01      	cmp	r2, #1
 8003cfe:	f023 0301 	bic.w	r3, r3, #1
 8003d02:	6003      	str	r3, [r0, #0]
 8003d04:	d005      	beq.n	8003d12 <SPI_1xx_start+0x66>
 8003d06:	6803      	ldr	r3, [r0, #0]
 8003d08:	bc10      	pop	{r4}
 8003d0a:	f043 0340 	orr.w	r3, r3, #64	; 0x40
 8003d0e:	6003      	str	r3, [r0, #0]
 8003d10:	4770      	bx	lr
 8003d12:	6843      	ldr	r3, [r0, #4]
 8003d14:	4a10      	ldr	r2, [pc, #64]	; (8003d58 <SPI_1xx_start+0xac>)
 8003d16:	f043 0380 	orr.w	r3, r3, #128	; 0x80
 8003d1a:	6043      	str	r3, [r0, #4]
 8003d1c:	6843      	ldr	r3, [r0, #4]
 8003d1e:	f043 0340 	orr.w	r3, r3, #64	; 0x40
 8003d22:	6043      	str	r3, [r0, #4]
 8003d24:	6843      	ldr	r3, [r0, #4]
 8003d26:	4290      	cmp	r0, r2
 8003d28:	f043 0320 	orr.w	r3, r3, #32
 8003d2c:	6043      	str	r3, [r0, #4]
 8003d2e:	d00a      	beq.n	8003d46 <SPI_1xx_start+0x9a>
 8003d30:	4b0a      	ldr	r3, [pc, #40]	; (8003d5c <SPI_1xx_start+0xb0>)
 8003d32:	4298      	cmp	r0, r3
 8003d34:	d00b      	beq.n	8003d4e <SPI_1xx_start+0xa2>
 8003d36:	4b0a      	ldr	r3, [pc, #40]	; (8003d60 <SPI_1xx_start+0xb4>)
 8003d38:	4298      	cmp	r0, r3
 8003d3a:	d1e4      	bne.n	8003d06 <SPI_1xx_start+0x5a>
 8003d3c:	4b09      	ldr	r3, [pc, #36]	; (8003d64 <SPI_1xx_start+0xb8>)
 8003d3e:	f44f 2200 	mov.w	r2, #524288	; 0x80000
 8003d42:	605a      	str	r2, [r3, #4]
 8003d44:	e7df      	b.n	8003d06 <SPI_1xx_start+0x5a>
 8003d46:	4b07      	ldr	r3, [pc, #28]	; (8003d64 <SPI_1xx_start+0xb8>)
 8003d48:	2208      	movs	r2, #8
 8003d4a:	605a      	str	r2, [r3, #4]
 8003d4c:	e7db      	b.n	8003d06 <SPI_1xx_start+0x5a>
 8003d4e:	4b05      	ldr	r3, [pc, #20]	; (8003d64 <SPI_1xx_start+0xb8>)
 8003d50:	2210      	movs	r2, #16
 8003d52:	605a      	str	r2, [r3, #4]
 8003d54:	e7d7      	b.n	8003d06 <SPI_1xx_start+0x5a>
 8003d56:	bf00      	nop
 8003d58:	40013000 	.word	0x40013000
 8003d5c:	40003800 	.word	0x40003800
 8003d60:	40003c00 	.word	0x40003c00
 8003d64:	e000e100 	.word	0xe000e100

08003d68 <SPI_1xx_transmit_byte>:
 8003d68:	b500      	push	{lr}
 8003d6a:	f04f 0c00 	mov.w	ip, #0
 8003d6e:	f640 7efe 	movw	lr, #4094	; 0xffe
 8003d72:	fa1f f38c 	uxth.w	r3, ip
 8003d76:	6882      	ldr	r2, [r0, #8]
 8003d78:	4573      	cmp	r3, lr
 8003d7a:	f082 0202 	eor.w	r2, r2, #2
 8003d7e:	bf8c      	ite	hi
 8003d80:	2300      	movhi	r3, #0
 8003d82:	2301      	movls	r3, #1
 8003d84:	ea13 0352 	ands.w	r3, r3, r2, lsr #1
 8003d88:	f10c 0c01 	add.w	ip, ip, #1
 8003d8c:	d1f1      	bne.n	8003d72 <SPI_1xx_transmit_byte+0xa>
 8003d8e:	60c1      	str	r1, [r0, #12]
 8003d90:	f640 7cfe 	movw	ip, #4094	; 0xffe
 8003d94:	b29a      	uxth	r2, r3
 8003d96:	4562      	cmp	r2, ip
 8003d98:	6881      	ldr	r1, [r0, #8]
 8003d9a:	bf8c      	ite	hi
 8003d9c:	2200      	movhi	r2, #0
 8003d9e:	2201      	movls	r2, #1
 8003da0:	438a      	bics	r2, r1
 8003da2:	f103 0301 	add.w	r3, r3, #1
 8003da6:	d1f5      	bne.n	8003d94 <SPI_1xx_transmit_byte+0x2c>
 8003da8:	68c0      	ldr	r0, [r0, #12]
 8003daa:	b2c0      	uxtb	r0, r0
 8003dac:	f85d fb04 	ldr.w	pc, [sp], #4

08003db0 <SPI_1xx_receive_byte>:
 8003db0:	2100      	movs	r1, #0
 8003db2:	f640 7cfe 	movw	ip, #4094	; 0xffe
 8003db6:	b28b      	uxth	r3, r1
 8003db8:	6882      	ldr	r2, [r0, #8]
 8003dba:	4563      	cmp	r3, ip
 8003dbc:	f082 0202 	eor.w	r2, r2, #2
 8003dc0:	bf8c      	ite	hi
 8003dc2:	2300      	movhi	r3, #0
 8003dc4:	2301      	movls	r3, #1
 8003dc6:	ea13 0352 	ands.w	r3, r3, r2, lsr #1
 8003dca:	f101 0101 	add.w	r1, r1, #1
 8003dce:	d1f2      	bne.n	8003db6 <SPI_1xx_receive_byte+0x6>
 8003dd0:	22ff      	movs	r2, #255	; 0xff
 8003dd2:	60c2      	str	r2, [r0, #12]
 8003dd4:	f640 7cfe 	movw	ip, #4094	; 0xffe
 8003dd8:	b29a      	uxth	r2, r3
 8003dda:	4562      	cmp	r2, ip
 8003ddc:	6881      	ldr	r1, [r0, #8]
 8003dde:	bf8c      	ite	hi
 8003de0:	2200      	movhi	r2, #0
 8003de2:	2201      	movls	r2, #1
 8003de4:	438a      	bics	r2, r1
 8003de6:	f103 0301 	add.w	r3, r3, #1
 8003dea:	d1f5      	bne.n	8003dd8 <SPI_1xx_receive_byte+0x28>
 8003dec:	68c0      	ldr	r0, [r0, #12]
 8003dee:	b2c0      	uxtb	r0, r0
 8003df0:	4770      	bx	lr
 8003df2:	bf00      	nop

08003df4 <SPI_start_memchip_spi>:
 8003df4:	b500      	push	{lr}
 8003df6:	2300      	movs	r3, #0
 8003df8:	b083      	sub	sp, #12
 8003dfa:	e9cd 3300 	strd	r3, r3, [sp]
 8003dfe:	4804      	ldr	r0, [pc, #16]	; (8003e10 <SPI_start_memchip_spi+0x1c>)
 8003e00:	461a      	mov	r2, r3
 8003e02:	4619      	mov	r1, r3
 8003e04:	f7ff ff52 	bl	8003cac <SPI_1xx_start>
 8003e08:	b003      	add	sp, #12
 8003e0a:	f85d fb04 	ldr.w	pc, [sp], #4
 8003e0e:	bf00      	nop
 8003e10:	40013000 	.word	0x40013000

08003e14 <SPI_transmit_byte>:
 8003e14:	f7ff bfa8 	b.w	8003d68 <SPI_1xx_transmit_byte>

08003e18 <SPI_receive_byte>:
 8003e18:	f7ff bfca 	b.w	8003db0 <SPI_1xx_receive_byte>

08003e1c <startBasicTimer>:
 8003e1c:	2300      	movs	r3, #0
 8003e1e:	6290      	str	r0, [r2, #40]	; 0x28
 8003e20:	62d1      	str	r1, [r2, #44]	; 0x2c
 8003e22:	6253      	str	r3, [r2, #36]	; 0x24
 8003e24:	6813      	ldr	r3, [r2, #0]
 8003e26:	f043 0380 	orr.w	r3, r3, #128	; 0x80
 8003e2a:	6013      	str	r3, [r2, #0]
 8003e2c:	6813      	ldr	r3, [r2, #0]
 8003e2e:	f043 0304 	orr.w	r3, r3, #4
 8003e32:	6013      	str	r3, [r2, #0]
 8003e34:	6813      	ldr	r3, [r2, #0]
 8003e36:	f023 0302 	bic.w	r3, r3, #2
 8003e3a:	6013      	str	r3, [r2, #0]
 8003e3c:	6853      	ldr	r3, [r2, #4]
 8003e3e:	f043 0320 	orr.w	r3, r3, #32
 8003e42:	6053      	str	r3, [r2, #4]
 8003e44:	6953      	ldr	r3, [r2, #20]
 8003e46:	f043 0301 	orr.w	r3, r3, #1
 8003e4a:	6153      	str	r3, [r2, #20]
 8003e4c:	68d3      	ldr	r3, [r2, #12]
 8003e4e:	f043 0301 	orr.w	r3, r3, #1
 8003e52:	60d3      	str	r3, [r2, #12]
 8003e54:	6813      	ldr	r3, [r2, #0]
 8003e56:	f043 0301 	orr.w	r3, r3, #1
 8003e5a:	6013      	str	r3, [r2, #0]
 8003e5c:	4770      	bx	lr
 8003e5e:	bf00      	nop

08003e60 <stopBasicTimer>:
 8003e60:	6803      	ldr	r3, [r0, #0]
 8003e62:	f023 0301 	bic.w	r3, r3, #1
 8003e66:	6003      	str	r3, [r0, #0]
 8003e68:	68c3      	ldr	r3, [r0, #12]
 8003e6a:	f023 0301 	bic.w	r3, r3, #1
 8003e6e:	60c3      	str	r3, [r0, #12]
 8003e70:	4770      	bx	lr
 8003e72:	bf00      	nop

08003e74 <write_Fifo>:
 8003e74:	b570      	push	{r4, r5, r6, lr}
 8003e76:	f100 7520 	add.w	r5, r0, #41943040	; 0x2800000
 8003e7a:	f012 0c03 	ands.w	ip, r2, #3
 8003e7e:	f105 0548 	add.w	r5, r5, #72	; 0x48
 8003e82:	ea4f 1545 	mov.w	r5, r5, lsl #5
 8003e86:	bf18      	it	ne
 8003e88:	f04f 0c01 	movne.w	ip, #1
 8003e8c:	eb1c 0c92 	adds.w	ip, ip, r2, lsr #2
 8003e90:	69ae      	ldr	r6, [r5, #24]
 8003e92:	b082      	sub	sp, #8
 8003e94:	d00d      	beq.n	8003eb2 <write_Fifo+0x3e>
 8003e96:	f500 2ea0 	add.w	lr, r0, #327680	; 0x50000
 8003e9a:	f10e 0e01 	add.w	lr, lr, #1
 8003e9e:	ea4f 3e0e 	mov.w	lr, lr, lsl #12
 8003ea2:	2300      	movs	r3, #0
 8003ea4:	3301      	adds	r3, #1
 8003ea6:	f851 4b04 	ldr.w	r4, [r1], #4
 8003eaa:	f8ce 4000 	str.w	r4, [lr]
 8003eae:	459c      	cmp	ip, r3
 8003eb0:	d1f8      	bne.n	8003ea4 <write_Fifo+0x30>
 8003eb2:	b178      	cbz	r0, 8003ed4 <write_Fifo+0x60>
 8003eb4:	2300      	movs	r3, #0
 8003eb6:	9301      	str	r3, [sp, #4]
 8003eb8:	f644 6120 	movw	r1, #20000	; 0x4e20
 8003ebc:	e002      	b.n	8003ec4 <write_Fifo+0x50>
 8003ebe:	69ab      	ldr	r3, [r5, #24]
 8003ec0:	429e      	cmp	r6, r3
 8003ec2:	d007      	beq.n	8003ed4 <write_Fifo+0x60>
 8003ec4:	9b01      	ldr	r3, [sp, #4]
 8003ec6:	3301      	adds	r3, #1
 8003ec8:	428b      	cmp	r3, r1
 8003eca:	9301      	str	r3, [sp, #4]
 8003ecc:	d9f7      	bls.n	8003ebe <write_Fifo+0x4a>
 8003ece:	2000      	movs	r0, #0
 8003ed0:	b002      	add	sp, #8
 8003ed2:	bd70      	pop	{r4, r5, r6, pc}
 8003ed4:	4b06      	ldr	r3, [pc, #24]	; (8003ef0 <write_Fifo+0x7c>)
 8003ed6:	ebc0 00c0 	rsb	r0, r0, r0, lsl #3
 8003eda:	eb03 0380 	add.w	r3, r3, r0, lsl #2
 8003ede:	2001      	movs	r0, #1
 8003ee0:	68dc      	ldr	r4, [r3, #12]
 8003ee2:	88d9      	ldrh	r1, [r3, #6]
 8003ee4:	4414      	add	r4, r2
 8003ee6:	1a8a      	subs	r2, r1, r2
 8003ee8:	60dc      	str	r4, [r3, #12]
 8003eea:	80da      	strh	r2, [r3, #6]
 8003eec:	b002      	add	sp, #8
 8003eee:	bd70      	pop	{r4, r5, r6, pc}
 8003ef0:	20008940 	.word	0x20008940

08003ef4 <USB_CDC_setTxBuffer>:
 8003ef4:	b5f8      	push	{r3, r4, r5, r6, r7, lr}
 8003ef6:	4c21      	ldr	r4, [pc, #132]	; (8003f7c <USB_CDC_setTxBuffer+0x88>)
 8003ef8:	ebc0 0cc0 	rsb	ip, r0, r0, lsl #3
 8003efc:	eb04 0c8c 	add.w	ip, r4, ip, lsl #2
 8003f00:	f8bc 5006 	ldrh.w	r5, [ip, #6]
 8003f04:	b9fd      	cbnz	r5, 8003f46 <USB_CDC_setTxBuffer+0x52>
 8003f06:	f8bc 4002 	ldrh.w	r4, [ip, #2]
 8003f0a:	2c02      	cmp	r4, #2
 8003f0c:	d01b      	beq.n	8003f46 <USB_CDC_setTxBuffer+0x52>
 8003f0e:	4f1c      	ldr	r7, [pc, #112]	; (8003f80 <USB_CDC_setTxBuffer+0x8c>)
 8003f10:	683e      	ldr	r6, [r7, #0]
 8003f12:	f016 0408 	ands.w	r4, r6, #8
 8003f16:	d002      	beq.n	8003f1e <USB_CDC_setTxBuffer+0x2a>
 8003f18:	462c      	mov	r4, r5
 8003f1a:	4620      	mov	r0, r4
 8003f1c:	bdf8      	pop	{r3, r4, r5, r6, r7, pc}
 8003f1e:	2800      	cmp	r0, #0
 8003f20:	f240 253f 	movw	r5, #575	; 0x23f
 8003f24:	bf08      	it	eq
 8003f26:	257f      	moveq	r5, #127	; 0x7f
 8003f28:	42aa      	cmp	r2, r5
 8003f2a:	d8f6      	bhi.n	8003f1a <USB_CDC_setTxBuffer+0x26>
 8003f2c:	b172      	cbz	r2, 8003f4c <USB_CDC_setTxBuffer+0x58>
 8003f2e:	f8dc 3010 	ldr.w	r3, [ip, #16]
 8003f32:	f8cc 100c 	str.w	r1, [ip, #12]
 8003f36:	f046 0608 	orr.w	r6, r6, #8
 8003f3a:	f8ac 2006 	strh.w	r2, [ip, #6]
 8003f3e:	603e      	str	r6, [r7, #0]
 8003f40:	2401      	movs	r4, #1
 8003f42:	4798      	blx	r3
 8003f44:	e7e9      	b.n	8003f1a <USB_CDC_setTxBuffer+0x26>
 8003f46:	2400      	movs	r4, #0
 8003f48:	4620      	mov	r0, r4
 8003f4a:	bdf8      	pop	{r3, r4, r5, r6, r7, pc}
 8003f4c:	f100 7320 	add.w	r3, r0, #41943040	; 0x2800000
 8003f50:	3348      	adds	r3, #72	; 0x48
 8003f52:	015b      	lsls	r3, r3, #5
 8003f54:	f44f 2200 	mov.w	r2, #524288	; 0x80000
 8003f58:	611c      	str	r4, [r3, #16]
 8003f5a:	611a      	str	r2, [r3, #16]
 8003f5c:	691a      	ldr	r2, [r3, #16]
 8003f5e:	0cd2      	lsrs	r2, r2, #19
 8003f60:	04d2      	lsls	r2, r2, #19
 8003f62:	611a      	str	r2, [r3, #16]
 8003f64:	681a      	ldr	r2, [r3, #0]
 8003f66:	f042 4204 	orr.w	r2, r2, #2214592512	; 0x84000000
 8003f6a:	601a      	str	r2, [r3, #0]
 8003f6c:	f8d3 2200 	ldr.w	r2, [r3, #512]	; 0x200
 8003f70:	f042 4204 	orr.w	r2, r2, #2214592512	; 0x84000000
 8003f74:	2401      	movs	r4, #1
 8003f76:	f8c3 2200 	str.w	r2, [r3, #512]	; 0x200
 8003f7a:	e7ce      	b.n	8003f1a <USB_CDC_setTxBuffer+0x26>
 8003f7c:	20008940 	.word	0x20008940
 8003f80:	20009994 	.word	0x20009994

08003f84 <USB_CDC_transferRXCallback_EP0>:
 8003f84:	4b38      	ldr	r3, [pc, #224]	; (8004068 <USB_CDC_transferRXCallback_EP0+0xe4>)
 8003f86:	889a      	ldrh	r2, [r3, #4]
 8003f88:	b132      	cbz	r2, 8003f98 <USB_CDC_transferRXCallback_EP0+0x14>
 8003f8a:	8819      	ldrh	r1, [r3, #0]
 8003f8c:	2901      	cmp	r1, #1
 8003f8e:	d068      	beq.n	8004062 <USB_CDC_transferRXCallback_EP0+0xde>
 8003f90:	f242 0121 	movw	r1, #8225	; 0x2021
 8003f94:	4288      	cmp	r0, r1
 8003f96:	d001      	beq.n	8003f9c <USB_CDC_transferRXCallback_EP0+0x18>
 8003f98:	2001      	movs	r0, #1
 8003f9a:	4770      	bx	lr
 8003f9c:	b410      	push	{r4}
 8003f9e:	4c33      	ldr	r4, [pc, #204]	; (800406c <USB_CDC_transferRXCallback_EP0+0xe8>)
 8003fa0:	2101      	movs	r1, #1
 8003fa2:	6820      	ldr	r0, [r4, #0]
 8003fa4:	8019      	strh	r1, [r3, #0]
 8003fa6:	6899      	ldr	r1, [r3, #8]
 8003fa8:	f040 6000 	orr.w	r0, r0, #134217728	; 0x8000000
 8003fac:	1a89      	subs	r1, r1, r2
 8003fae:	6020      	str	r0, [r4, #0]
 8003fb0:	2a01      	cmp	r2, #1
 8003fb2:	6099      	str	r1, [r3, #8]
 8003fb4:	f102 30ff 	add.w	r0, r2, #4294967295	; 0xffffffff
 8003fb8:	780c      	ldrb	r4, [r1, #0]
 8003fba:	8098      	strh	r0, [r3, #4]
 8003fbc:	b083      	sub	sp, #12
 8003fbe:	d02c      	beq.n	800401a <USB_CDC_transferRXCallback_EP0+0x96>
 8003fc0:	7848      	ldrb	r0, [r1, #1]
 8003fc2:	f88d 0001 	strb.w	r0, [sp, #1]
 8003fc6:	2a02      	cmp	r2, #2
 8003fc8:	f1a2 0002 	sub.w	r0, r2, #2
 8003fcc:	8098      	strh	r0, [r3, #4]
 8003fce:	d024      	beq.n	800401a <USB_CDC_transferRXCallback_EP0+0x96>
 8003fd0:	7888      	ldrb	r0, [r1, #2]
 8003fd2:	f88d 0002 	strb.w	r0, [sp, #2]
 8003fd6:	2a03      	cmp	r2, #3
 8003fd8:	f1a2 0003 	sub.w	r0, r2, #3
 8003fdc:	8098      	strh	r0, [r3, #4]
 8003fde:	d01c      	beq.n	800401a <USB_CDC_transferRXCallback_EP0+0x96>
 8003fe0:	78c8      	ldrb	r0, [r1, #3]
 8003fe2:	f88d 0003 	strb.w	r0, [sp, #3]
 8003fe6:	2a04      	cmp	r2, #4
 8003fe8:	f1a2 0004 	sub.w	r0, r2, #4
 8003fec:	8098      	strh	r0, [r3, #4]
 8003fee:	d014      	beq.n	800401a <USB_CDC_transferRXCallback_EP0+0x96>
 8003ff0:	7908      	ldrb	r0, [r1, #4]
 8003ff2:	f88d 0004 	strb.w	r0, [sp, #4]
 8003ff6:	2a05      	cmp	r2, #5
 8003ff8:	f1a2 0005 	sub.w	r0, r2, #5
 8003ffc:	8098      	strh	r0, [r3, #4]
 8003ffe:	d00c      	beq.n	800401a <USB_CDC_transferRXCallback_EP0+0x96>
 8004000:	7948      	ldrb	r0, [r1, #5]
 8004002:	f88d 0005 	strb.w	r0, [sp, #5]
 8004006:	2a06      	cmp	r2, #6
 8004008:	f1a2 0006 	sub.w	r0, r2, #6
 800400c:	8098      	strh	r0, [r3, #4]
 800400e:	d004      	beq.n	800401a <USB_CDC_transferRXCallback_EP0+0x96>
 8004010:	7989      	ldrb	r1, [r1, #6]
 8004012:	f88d 1006 	strb.w	r1, [sp, #6]
 8004016:	3a07      	subs	r2, #7
 8004018:	809a      	strh	r2, [r3, #4]
 800401a:	4a15      	ldr	r2, [pc, #84]	; (8004070 <USB_CDC_transferRXCallback_EP0+0xec>)
 800401c:	f89d 0001 	ldrb.w	r0, [sp, #1]
 8004020:	7991      	ldrb	r1, [r2, #6]
 8004022:	7050      	strb	r0, [r2, #1]
 8004024:	2908      	cmp	r1, #8
 8004026:	f89d 0004 	ldrb.w	r0, [sp, #4]
 800402a:	7014      	strb	r4, [r2, #0]
 800402c:	bf18      	it	ne
 800402e:	f89d 1006 	ldrbne.w	r1, [sp, #6]
 8004032:	f89d c002 	ldrb.w	ip, [sp, #2]
 8004036:	f89d 4003 	ldrb.w	r4, [sp, #3]
 800403a:	7110      	strb	r0, [r2, #4]
 800403c:	f89d 0005 	ldrb.w	r0, [sp, #5]
 8004040:	f882 c002 	strb.w	ip, [r2, #2]
 8004044:	70d4      	strb	r4, [r2, #3]
 8004046:	7150      	strb	r0, [r2, #5]
 8004048:	bf18      	it	ne
 800404a:	7191      	strbne	r1, [r2, #6]
 800404c:	4a07      	ldr	r2, [pc, #28]	; (800406c <USB_CDC_transferRXCallback_EP0+0xe8>)
 800404e:	2100      	movs	r1, #0
 8004050:	8019      	strh	r1, [r3, #0]
 8004052:	6813      	ldr	r3, [r2, #0]
 8004054:	2001      	movs	r0, #1
 8004056:	f043 4304 	orr.w	r3, r3, #2214592512	; 0x84000000
 800405a:	6013      	str	r3, [r2, #0]
 800405c:	b003      	add	sp, #12
 800405e:	bc10      	pop	{r4}
 8004060:	4770      	bx	lr
 8004062:	2000      	movs	r0, #0
 8004064:	4770      	bx	lr
 8004066:	bf00      	nop
 8004068:	20008940 	.word	0x20008940
 800406c:	50000b00 	.word	0x50000b00
 8004070:	2000999c 	.word	0x2000999c

08004074 <USB_CDC_transferTXCallback>:
 8004074:	e92d 4ff0 	stmdb	sp!, {r4, r5, r6, r7, r8, r9, sl, fp, lr}
 8004078:	4e9f      	ldr	r6, [pc, #636]	; (80042f8 <USB_CDC_transferTXCallback+0x284>)
 800407a:	ebc0 09c0 	rsb	r9, r0, r0, lsl #3
 800407e:	eb06 0989 	add.w	r9, r6, r9, lsl #2
 8004082:	b083      	sub	sp, #12
 8004084:	f8b9 3002 	ldrh.w	r3, [r9, #2]
 8004088:	2b01      	cmp	r3, #1
 800408a:	4604      	mov	r4, r0
 800408c:	d06b      	beq.n	8004166 <USB_CDC_transferTXCallback+0xf2>
 800408e:	f8b9 7006 	ldrh.w	r7, [r9, #6]
 8004092:	ea4f 08c0 	mov.w	r8, r0, lsl #3
 8004096:	b9df      	cbnz	r7, 80040d0 <USB_CDC_transferTXCallback+0x5c>
 8004098:	2b02      	cmp	r3, #2
 800409a:	f000 8133 	beq.w	8004304 <USB_CDC_transferTXCallback+0x290>
 800409e:	f100 7420 	add.w	r4, r0, #41943040	; 0x2800000
 80040a2:	3458      	adds	r4, #88	; 0x58
 80040a4:	0164      	lsls	r4, r4, #5
 80040a6:	4995      	ldr	r1, [pc, #596]	; (80042fc <USB_CDC_transferTXCallback+0x288>)
 80040a8:	6823      	ldr	r3, [r4, #0]
 80040aa:	680a      	ldr	r2, [r1, #0]
 80040ac:	f043 4304 	orr.w	r3, r3, #2214592512	; 0x84000000
 80040b0:	6023      	str	r3, [r4, #0]
 80040b2:	f5a4 7400 	sub.w	r4, r4, #512	; 0x200
 80040b6:	f022 0208 	bic.w	r2, r2, #8
 80040ba:	6823      	ldr	r3, [r4, #0]
 80040bc:	f8a9 7002 	strh.w	r7, [r9, #2]
 80040c0:	f043 6300 	orr.w	r3, r3, #134217728	; 0x8000000
 80040c4:	600a      	str	r2, [r1, #0]
 80040c6:	6023      	str	r3, [r4, #0]
 80040c8:	2001      	movs	r0, #1
 80040ca:	b003      	add	sp, #12
 80040cc:	e8bd 8ff0 	ldmia.w	sp!, {r4, r5, r6, r7, r8, r9, sl, fp, pc}
 80040d0:	2800      	cmp	r0, #0
 80040d2:	bf0c      	ite	eq
 80040d4:	2240      	moveq	r2, #64	; 0x40
 80040d6:	f44f 7200 	movne.w	r2, #512	; 0x200
 80040da:	2f3f      	cmp	r7, #63	; 0x3f
 80040dc:	d84f      	bhi.n	800417e <USB_CDC_transferTXCallback+0x10a>
 80040de:	f100 7320 	add.w	r3, r0, #41943040	; 0x2800000
 80040e2:	f103 0548 	add.w	r5, r3, #72	; 0x48
 80040e6:	016d      	lsls	r5, r5, #5
 80040e8:	9300      	str	r3, [sp, #0]
 80040ea:	2301      	movs	r3, #1
 80040ec:	f8a9 3002 	strh.w	r3, [r9, #2]
 80040f0:	f447 2300 	orr.w	r3, r7, #524288	; 0x80000
 80040f4:	612b      	str	r3, [r5, #16]
 80040f6:	682b      	ldr	r3, [r5, #0]
 80040f8:	f8df a204 	ldr.w	sl, [pc, #516]	; 8004300 <USB_CDC_transferTXCallback+0x28c>
 80040fc:	f043 4304 	orr.w	r3, r3, #2214592512	; 0x84000000
 8004100:	2801      	cmp	r0, #1
 8004102:	602b      	str	r3, [r5, #0]
 8004104:	d111      	bne.n	800412a <USB_CDC_transferTXCallback+0xb6>
 8004106:	e0d0      	b.n	80042aa <USB_CDC_transferTXCallback+0x236>
 8004108:	f8b9 3006 	ldrh.w	r3, [r9, #6]
 800410c:	f8da 2020 	ldr.w	r2, [sl, #32]
 8004110:	f8da 2030 	ldr.w	r2, [sl, #48]	; 0x30
 8004114:	f8da 2030 	ldr.w	r2, [sl, #48]	; 0x30
 8004118:	6128      	str	r0, [r5, #16]
 800411a:	f443 2300 	orr.w	r3, r3, #524288	; 0x80000
 800411e:	612b      	str	r3, [r5, #16]
 8004120:	682b      	ldr	r3, [r5, #0]
 8004122:	f043 4304 	orr.w	r3, r3, #2214592512	; 0x84000000
 8004126:	602b      	str	r3, [r5, #0]
 8004128:	69ab      	ldr	r3, [r5, #24]
 800412a:	f8d9 100c 	ldr.w	r1, [r9, #12]
 800412e:	463a      	mov	r2, r7
 8004130:	4620      	mov	r0, r4
 8004132:	f7ff fe9f 	bl	8003e74 <write_Fifo>
 8004136:	2800      	cmp	r0, #0
 8004138:	d0e6      	beq.n	8004108 <USB_CDC_transferTXCallback+0x94>
 800413a:	4a70      	ldr	r2, [pc, #448]	; (80042fc <USB_CDC_transferTXCallback+0x288>)
 800413c:	9f00      	ldr	r7, [sp, #0]
 800413e:	6813      	ldr	r3, [r2, #0]
 8004140:	3758      	adds	r7, #88	; 0x58
 8004142:	017f      	lsls	r7, r7, #5
 8004144:	f023 0308 	bic.w	r3, r3, #8
 8004148:	6013      	str	r3, [r2, #0]
 800414a:	eba8 0404 	sub.w	r4, r8, r4
 800414e:	683b      	ldr	r3, [r7, #0]
 8004150:	eb06 0684 	add.w	r6, r6, r4, lsl #2
 8004154:	2200      	movs	r2, #0
 8004156:	2001      	movs	r0, #1
 8004158:	f043 4304 	orr.w	r3, r3, #2214592512	; 0x84000000
 800415c:	603b      	str	r3, [r7, #0]
 800415e:	8072      	strh	r2, [r6, #2]
 8004160:	b003      	add	sp, #12
 8004162:	e8bd 8ff0 	ldmia.w	sp!, {r4, r5, r6, r7, r8, r9, sl, fp, pc}
 8004166:	f100 7420 	add.w	r4, r0, #41943040	; 0x2800000
 800416a:	3458      	adds	r4, #88	; 0x58
 800416c:	0164      	lsls	r4, r4, #5
 800416e:	2000      	movs	r0, #0
 8004170:	6823      	ldr	r3, [r4, #0]
 8004172:	f043 4304 	orr.w	r3, r3, #2214592512	; 0x84000000
 8004176:	6023      	str	r3, [r4, #0]
 8004178:	b003      	add	sp, #12
 800417a:	e8bd 8ff0 	ldmia.w	sp!, {r4, r5, r6, r7, r8, r9, sl, fp, pc}
 800417e:	4297      	cmp	r7, r2
 8004180:	bf28      	it	cs
 8004182:	4617      	movcs	r7, r2
 8004184:	f017 0a3f 	ands.w	sl, r7, #63	; 0x3f
 8004188:	f100 7320 	add.w	r3, r0, #41943040	; 0x2800000
 800418c:	bf18      	it	ne
 800418e:	f04f 0a01 	movne.w	sl, #1
 8004192:	f103 0548 	add.w	r5, r3, #72	; 0x48
 8004196:	016d      	lsls	r5, r5, #5
 8004198:	eb0a 1a97 	add.w	sl, sl, r7, lsr #6
 800419c:	ea47 4aca 	orr.w	sl, r7, sl, lsl #19
 80041a0:	9300      	str	r3, [sp, #0]
 80041a2:	2301      	movs	r3, #1
 80041a4:	f8a9 3002 	strh.w	r3, [r9, #2]
 80041a8:	f8c5 a010 	str.w	sl, [r5, #16]
 80041ac:	682b      	ldr	r3, [r5, #0]
 80041ae:	46bb      	mov	fp, r7
 80041b0:	f043 4304 	orr.w	r3, r3, #2214592512	; 0x84000000
 80041b4:	602b      	str	r3, [r5, #0]
 80041b6:	2801      	cmp	r0, #1
 80041b8:	f00b 033f 	and.w	r3, fp, #63	; 0x3f
 80041bc:	4f50      	ldr	r7, [pc, #320]	; (8004300 <USB_CDC_transferTXCallback+0x28c>)
 80041be:	9301      	str	r3, [sp, #4]
 80041c0:	d10b      	bne.n	80041da <USB_CDC_transferTXCallback+0x166>
 80041c2:	e052      	b.n	800426a <USB_CDC_transferTXCallback+0x1f6>
 80041c4:	6a3b      	ldr	r3, [r7, #32]
 80041c6:	6b3b      	ldr	r3, [r7, #48]	; 0x30
 80041c8:	6b3b      	ldr	r3, [r7, #48]	; 0x30
 80041ca:	6128      	str	r0, [r5, #16]
 80041cc:	f8c5 a010 	str.w	sl, [r5, #16]
 80041d0:	682b      	ldr	r3, [r5, #0]
 80041d2:	f043 4304 	orr.w	r3, r3, #2214592512	; 0x84000000
 80041d6:	602b      	str	r3, [r5, #0]
 80041d8:	69ab      	ldr	r3, [r5, #24]
 80041da:	f8d9 100c 	ldr.w	r1, [r9, #12]
 80041de:	465a      	mov	r2, fp
 80041e0:	4620      	mov	r0, r4
 80041e2:	f7ff fe47 	bl	8003e74 <write_Fifo>
 80041e6:	2800      	cmp	r0, #0
 80041e8:	d0ec      	beq.n	80041c4 <USB_CDC_transferTXCallback+0x150>
 80041ea:	f04f 41a0 	mov.w	r1, #1342177280	; 0x50000000
 80041ee:	2360      	movs	r3, #96	; 0x60
 80041f0:	610b      	str	r3, [r1, #16]
 80041f2:	f644 6320 	movw	r3, #20000	; 0x4e20
 80041f6:	690a      	ldr	r2, [r1, #16]
 80041f8:	0690      	lsls	r0, r2, #26
 80041fa:	d501      	bpl.n	8004200 <USB_CDC_transferTXCallback+0x18c>
 80041fc:	3b01      	subs	r3, #1
 80041fe:	d1fa      	bne.n	80041f6 <USB_CDC_transferTXCallback+0x182>
 8004200:	eba8 0304 	sub.w	r3, r8, r4
 8004204:	eb06 0383 	add.w	r3, r6, r3, lsl #2
 8004208:	9a01      	ldr	r2, [sp, #4]
 800420a:	88db      	ldrh	r3, [r3, #6]
 800420c:	ea52 0b03 	orrs.w	fp, r2, r3
 8004210:	d193      	bne.n	800413a <USB_CDC_transferTXCallback+0xc6>
 8004212:	682b      	ldr	r3, [r5, #0]
 8004214:	692b      	ldr	r3, [r5, #16]
 8004216:	692b      	ldr	r3, [r5, #16]
 8004218:	f8c5 b010 	str.w	fp, [r5, #16]
 800421c:	f44f 2300 	mov.w	r3, #524288	; 0x80000
 8004220:	612b      	str	r3, [r5, #16]
 8004222:	692b      	ldr	r3, [r5, #16]
 8004224:	0cdb      	lsrs	r3, r3, #19
 8004226:	04db      	lsls	r3, r3, #19
 8004228:	612b      	str	r3, [r5, #16]
 800422a:	682b      	ldr	r3, [r5, #0]
 800422c:	f043 4304 	orr.w	r3, r3, #2214592512	; 0x84000000
 8004230:	602b      	str	r3, [r5, #0]
 8004232:	692b      	ldr	r3, [r5, #16]
 8004234:	2b00      	cmp	r3, #0
 8004236:	d1fc      	bne.n	8004232 <USB_CDC_transferTXCallback+0x1be>
 8004238:	f8d5 2200 	ldr.w	r2, [r5, #512]	; 0x200
 800423c:	492f      	ldr	r1, [pc, #188]	; (80042fc <USB_CDC_transferTXCallback+0x288>)
 800423e:	f042 4204 	orr.w	r2, r2, #2214592512	; 0x84000000
 8004242:	eba8 0404 	sub.w	r4, r8, r4
 8004246:	f8c5 2200 	str.w	r2, [r5, #512]	; 0x200
 800424a:	eb06 0684 	add.w	r6, r6, r4, lsl #2
 800424e:	682a      	ldr	r2, [r5, #0]
 8004250:	8073      	strh	r3, [r6, #2]
 8004252:	680b      	ldr	r3, [r1, #0]
 8004254:	f042 6200 	orr.w	r2, r2, #134217728	; 0x8000000
 8004258:	602a      	str	r2, [r5, #0]
 800425a:	f023 0308 	bic.w	r3, r3, #8
 800425e:	682a      	ldr	r2, [r5, #0]
 8004260:	600b      	str	r3, [r1, #0]
 8004262:	2001      	movs	r0, #1
 8004264:	692b      	ldr	r3, [r5, #16]
 8004266:	692b      	ldr	r3, [r5, #16]
 8004268:	e72f      	b.n	80040ca <USB_CDC_transferTXCallback+0x56>
 800426a:	6ab1      	ldr	r1, [r6, #40]	; 0x28
 800426c:	465a      	mov	r2, fp
 800426e:	2001      	movs	r0, #1
 8004270:	f7ff fe00 	bl	8003e74 <write_Fifo>
 8004274:	2800      	cmp	r0, #0
 8004276:	d1b8      	bne.n	80041ea <USB_CDC_transferTXCallback+0x176>
 8004278:	6a3b      	ldr	r3, [r7, #32]
 800427a:	6b3b      	ldr	r3, [r7, #48]	; 0x30
 800427c:	6b3b      	ldr	r3, [r7, #48]	; 0x30
 800427e:	6128      	str	r0, [r5, #16]
 8004280:	f8c5 a010 	str.w	sl, [r5, #16]
 8004284:	682b      	ldr	r3, [r5, #0]
 8004286:	f043 4304 	orr.w	r3, r3, #2214592512	; 0x84000000
 800428a:	602b      	str	r3, [r5, #0]
 800428c:	69ab      	ldr	r3, [r5, #24]
 800428e:	2b0f      	cmp	r3, #15
 8004290:	d9eb      	bls.n	800426a <USB_CDC_transferTXCallback+0x1f6>
 8004292:	f04f 40a0 	mov.w	r0, #1342177280	; 0x50000000
 8004296:	2360      	movs	r3, #96	; 0x60
 8004298:	6103      	str	r3, [r0, #16]
 800429a:	f644 6320 	movw	r3, #20000	; 0x4e20
 800429e:	6901      	ldr	r1, [r0, #16]
 80042a0:	068a      	lsls	r2, r1, #26
 80042a2:	d5e2      	bpl.n	800426a <USB_CDC_transferTXCallback+0x1f6>
 80042a4:	3b01      	subs	r3, #1
 80042a6:	d1fa      	bne.n	800429e <USB_CDC_transferTXCallback+0x22a>
 80042a8:	e7df      	b.n	800426a <USB_CDC_transferTXCallback+0x1f6>
 80042aa:	6ab1      	ldr	r1, [r6, #40]	; 0x28
 80042ac:	463a      	mov	r2, r7
 80042ae:	2001      	movs	r0, #1
 80042b0:	f7ff fde0 	bl	8003e74 <write_Fifo>
 80042b4:	2800      	cmp	r0, #0
 80042b6:	f47f af40 	bne.w	800413a <USB_CDC_transferTXCallback+0xc6>
 80042ba:	f8da 3020 	ldr.w	r3, [sl, #32]
 80042be:	f8da 3030 	ldr.w	r3, [sl, #48]	; 0x30
 80042c2:	f8da 3030 	ldr.w	r3, [sl, #48]	; 0x30
 80042c6:	8c73      	ldrh	r3, [r6, #34]	; 0x22
 80042c8:	6128      	str	r0, [r5, #16]
 80042ca:	f443 2300 	orr.w	r3, r3, #524288	; 0x80000
 80042ce:	612b      	str	r3, [r5, #16]
 80042d0:	682b      	ldr	r3, [r5, #0]
 80042d2:	f043 4304 	orr.w	r3, r3, #2214592512	; 0x84000000
 80042d6:	602b      	str	r3, [r5, #0]
 80042d8:	69ab      	ldr	r3, [r5, #24]
 80042da:	2b0f      	cmp	r3, #15
 80042dc:	d9e5      	bls.n	80042aa <USB_CDC_transferTXCallback+0x236>
 80042de:	f04f 40a0 	mov.w	r0, #1342177280	; 0x50000000
 80042e2:	2360      	movs	r3, #96	; 0x60
 80042e4:	6103      	str	r3, [r0, #16]
 80042e6:	f644 6320 	movw	r3, #20000	; 0x4e20
 80042ea:	6901      	ldr	r1, [r0, #16]
 80042ec:	068a      	lsls	r2, r1, #26
 80042ee:	d5dc      	bpl.n	80042aa <USB_CDC_transferTXCallback+0x236>
 80042f0:	3b01      	subs	r3, #1
 80042f2:	d1fa      	bne.n	80042ea <USB_CDC_transferTXCallback+0x276>
 80042f4:	e7d9      	b.n	80042aa <USB_CDC_transferTXCallback+0x236>
 80042f6:	bf00      	nop
 80042f8:	20008940 	.word	0x20008940
 80042fc:	20009994 	.word	0x20009994
 8004300:	50000900 	.word	0x50000900
 8004304:	f100 7320 	add.w	r3, r0, #41943040	; 0x2800000
 8004308:	3348      	adds	r3, #72	; 0x48
 800430a:	015b      	lsls	r3, r3, #5
 800430c:	f44f 2200 	mov.w	r2, #524288	; 0x80000
 8004310:	611f      	str	r7, [r3, #16]
 8004312:	611a      	str	r2, [r3, #16]
 8004314:	691a      	ldr	r2, [r3, #16]
 8004316:	0cd2      	lsrs	r2, r2, #19
 8004318:	04d2      	lsls	r2, r2, #19
 800431a:	611a      	str	r2, [r3, #16]
 800431c:	681a      	ldr	r2, [r3, #0]
 800431e:	f042 4204 	orr.w	r2, r2, #2214592512	; 0x84000000
 8004322:	601a      	str	r2, [r3, #0]
 8004324:	691a      	ldr	r2, [r3, #16]
 8004326:	2a00      	cmp	r2, #0
 8004328:	d1fc      	bne.n	8004324 <USB_CDC_transferTXCallback+0x2b0>
 800432a:	f8d3 1200 	ldr.w	r1, [r3, #512]	; 0x200
 800432e:	eba8 0404 	sub.w	r4, r8, r4
 8004332:	f041 4104 	orr.w	r1, r1, #2214592512	; 0x84000000
 8004336:	f8c3 1200 	str.w	r1, [r3, #512]	; 0x200
 800433a:	eb06 0684 	add.w	r6, r6, r4, lsl #2
 800433e:	4c08      	ldr	r4, [pc, #32]	; (8004360 <USB_CDC_transferTXCallback+0x2ec>)
 8004340:	6819      	ldr	r1, [r3, #0]
 8004342:	8072      	strh	r2, [r6, #2]
 8004344:	6822      	ldr	r2, [r4, #0]
 8004346:	f041 6100 	orr.w	r1, r1, #134217728	; 0x8000000
 800434a:	6019      	str	r1, [r3, #0]
 800434c:	f022 0208 	bic.w	r2, r2, #8
 8004350:	6819      	ldr	r1, [r3, #0]
 8004352:	6022      	str	r2, [r4, #0]
 8004354:	691a      	ldr	r2, [r3, #16]
 8004356:	691b      	ldr	r3, [r3, #16]
 8004358:	2001      	movs	r0, #1
 800435a:	b003      	add	sp, #12
 800435c:	e8bd 8ff0 	ldmia.w	sp!, {r4, r5, r6, r7, r8, r9, sl, fp, pc}
 8004360:	20009994 	.word	0x20009994

08004364 <USB_OTG_FS_init_pinout>:
 8004364:	4b1c      	ldr	r3, [pc, #112]	; (80043d8 <USB_OTG_FS_init_pinout+0x74>)
 8004366:	681a      	ldr	r2, [r3, #0]
 8004368:	f422 0240 	bic.w	r2, r2, #12582912	; 0xc00000
 800436c:	601a      	str	r2, [r3, #0]
 800436e:	681a      	ldr	r2, [r3, #0]
 8004370:	f442 0200 	orr.w	r2, r2, #8388608	; 0x800000
 8004374:	601a      	str	r2, [r3, #0]
 8004376:	689a      	ldr	r2, [r3, #8]
 8004378:	f422 0240 	bic.w	r2, r2, #12582912	; 0xc00000
 800437c:	609a      	str	r2, [r3, #8]
 800437e:	689a      	ldr	r2, [r3, #8]
 8004380:	f442 0240 	orr.w	r2, r2, #12582912	; 0xc00000
 8004384:	609a      	str	r2, [r3, #8]
 8004386:	68da      	ldr	r2, [r3, #12]
 8004388:	f422 0240 	bic.w	r2, r2, #12582912	; 0xc00000
 800438c:	60da      	str	r2, [r3, #12]
 800438e:	6a5a      	ldr	r2, [r3, #36]	; 0x24
 8004390:	f442 5200 	orr.w	r2, r2, #8192	; 0x2000
 8004394:	625a      	str	r2, [r3, #36]	; 0x24
 8004396:	6a5a      	ldr	r2, [r3, #36]	; 0x24
 8004398:	f442 4200 	orr.w	r2, r2, #32768	; 0x8000
 800439c:	625a      	str	r2, [r3, #36]	; 0x24
 800439e:	681a      	ldr	r2, [r3, #0]
 80043a0:	f022 7240 	bic.w	r2, r2, #50331648	; 0x3000000
 80043a4:	601a      	str	r2, [r3, #0]
 80043a6:	681a      	ldr	r2, [r3, #0]
 80043a8:	f042 7200 	orr.w	r2, r2, #33554432	; 0x2000000
 80043ac:	601a      	str	r2, [r3, #0]
 80043ae:	689a      	ldr	r2, [r3, #8]
 80043b0:	f022 7240 	bic.w	r2, r2, #50331648	; 0x3000000
 80043b4:	609a      	str	r2, [r3, #8]
 80043b6:	689a      	ldr	r2, [r3, #8]
 80043b8:	f042 7240 	orr.w	r2, r2, #50331648	; 0x3000000
 80043bc:	609a      	str	r2, [r3, #8]
 80043be:	68da      	ldr	r2, [r3, #12]
 80043c0:	f022 7240 	bic.w	r2, r2, #50331648	; 0x3000000
 80043c4:	60da      	str	r2, [r3, #12]
 80043c6:	6a5a      	ldr	r2, [r3, #36]	; 0x24
 80043c8:	f442 3200 	orr.w	r2, r2, #131072	; 0x20000
 80043cc:	625a      	str	r2, [r3, #36]	; 0x24
 80043ce:	6a5a      	ldr	r2, [r3, #36]	; 0x24
 80043d0:	f442 2200 	orr.w	r2, r2, #524288	; 0x80000
 80043d4:	625a      	str	r2, [r3, #36]	; 0x24
 80043d6:	4770      	bx	lr
 80043d8:	40020000 	.word	0x40020000

080043dc <USB_OTG_FS_init_device>:
 80043dc:	b430      	push	{r4, r5}
 80043de:	4c3f      	ldr	r4, [pc, #252]	; (80044dc <USB_OTG_FS_init_device+0x100>)
 80043e0:	483f      	ldr	r0, [pc, #252]	; (80044e0 <USB_OTG_FS_init_device+0x104>)
 80043e2:	4d40      	ldr	r5, [pc, #256]	; (80044e4 <USB_OTG_FS_init_device+0x108>)
 80043e4:	f04f 43a0 	mov.w	r3, #1342177280	; 0x50000000
 80043e8:	2200      	movs	r2, #0
 80043ea:	6022      	str	r2, [r4, #0]
 80043ec:	2101      	movs	r1, #1
 80043ee:	f44f 1404 	mov.w	r4, #2162688	; 0x210000
 80043f2:	6099      	str	r1, [r3, #8]
 80043f4:	619d      	str	r5, [r3, #24]
 80043f6:	493c      	ldr	r1, [pc, #240]	; (80044e8 <USB_OTG_FS_init_device+0x10c>)
 80043f8:	639c      	str	r4, [r3, #56]	; 0x38
 80043fa:	2402      	movs	r4, #2
 80043fc:	6044      	str	r4, [r0, #4]
 80043fe:	f8c3 2e00 	str.w	r2, [r3, #3584]	; 0xe00
 8004402:	60d9      	str	r1, [r3, #12]
 8004404:	68dc      	ldr	r4, [r3, #12]
 8004406:	4939      	ldr	r1, [pc, #228]	; (80044ec <USB_OTG_FS_init_device+0x110>)
 8004408:	f424 5470 	bic.w	r4, r4, #15360	; 0x3c00
 800440c:	60dc      	str	r4, [r3, #12]
 800440e:	68dc      	ldr	r4, [r3, #12]
 8004410:	f444 54c0 	orr.w	r4, r4, #6144	; 0x1800
 8004414:	60dc      	str	r4, [r3, #12]
 8004416:	2424      	movs	r4, #36	; 0x24
 8004418:	625c      	str	r4, [r3, #36]	; 0x24
 800441a:	f504 1480 	add.w	r4, r4, #1048576	; 0x100000
 800441e:	629c      	str	r4, [r3, #40]	; 0x28
 8004420:	4c33      	ldr	r4, [pc, #204]	; (80044f0 <USB_OTG_FS_init_device+0x114>)
 8004422:	f8c3 4104 	str.w	r4, [r3, #260]	; 0x104
 8004426:	f8c3 2108 	str.w	r2, [r3, #264]	; 0x108
 800442a:	f8c3 210c 	str.w	r2, [r3, #268]	; 0x10c
 800442e:	f8c3 2110 	str.w	r2, [r3, #272]	; 0x110
 8004432:	f8c3 2114 	str.w	r2, [r3, #276]	; 0x114
 8004436:	f8c3 2118 	str.w	r2, [r3, #280]	; 0x118
 800443a:	f8c3 211c 	str.w	r2, [r3, #284]	; 0x11c
 800443e:	f8c3 2120 	str.w	r2, [r3, #288]	; 0x120
 8004442:	f8c3 2124 	str.w	r2, [r3, #292]	; 0x124
 8004446:	f8c3 2128 	str.w	r2, [r3, #296]	; 0x128
 800444a:	f8c3 212c 	str.w	r2, [r3, #300]	; 0x12c
 800444e:	f8c3 2130 	str.w	r2, [r3, #304]	; 0x130
 8004452:	f8c3 2134 	str.w	r2, [r3, #308]	; 0x134
 8004456:	f8c3 2138 	str.w	r2, [r3, #312]	; 0x138
 800445a:	f8c3 213c 	str.w	r2, [r3, #316]	; 0x13c
 800445e:	f8c3 2140 	str.w	r2, [r3, #320]	; 0x140
 8004462:	610a      	str	r2, [r1, #16]
 8004464:	690c      	ldr	r4, [r1, #16]
 8004466:	f444 2400 	orr.w	r4, r4, #524288	; 0x80000
 800446a:	610c      	str	r4, [r1, #16]
 800446c:	690c      	ldr	r4, [r1, #16]
 800446e:	f044 0440 	orr.w	r4, r4, #64	; 0x40
 8004472:	610c      	str	r4, [r1, #16]
 8004474:	690c      	ldr	r4, [r1, #16]
 8004476:	f044 44c0 	orr.w	r4, r4, #1610612736	; 0x60000000
 800447a:	610c      	str	r4, [r1, #16]
 800447c:	680c      	ldr	r4, [r1, #0]
 800447e:	f044 4404 	orr.w	r4, r4, #2214592512	; 0x84000000
 8004482:	600c      	str	r4, [r1, #0]
 8004484:	6801      	ldr	r1, [r0, #0]
 8004486:	f04f 34ff 	mov.w	r4, #4294967295	; 0xffffffff
 800448a:	f041 0103 	orr.w	r1, r1, #3
 800448e:	6001      	str	r1, [r0, #0]
 8004490:	615c      	str	r4, [r3, #20]
 8004492:	6844      	ldr	r4, [r0, #4]
 8004494:	4b17      	ldr	r3, [pc, #92]	; (80044f4 <USB_OTG_FS_init_device+0x118>)
 8004496:	4918      	ldr	r1, [pc, #96]	; (80044f8 <USB_OTG_FS_init_device+0x11c>)
 8004498:	f024 0402 	bic.w	r4, r4, #2
 800449c:	6044      	str	r4, [r0, #4]
 800449e:	4c17      	ldr	r4, [pc, #92]	; (80044fc <USB_OTG_FS_init_device+0x120>)
 80044a0:	6359      	str	r1, [r3, #52]	; 0x34
 80044a2:	e9c3 1206 	strd	r1, r2, [r3, #24]
 80044a6:	6519      	str	r1, [r3, #80]	; 0x50
 80044a8:	609c      	str	r4, [r3, #8]
 80044aa:	4915      	ldr	r1, [pc, #84]	; (8004500 <USB_OTG_FS_init_device+0x124>)
 80044ac:	4815      	ldr	r0, [pc, #84]	; (8004504 <USB_OTG_FS_init_device+0x128>)
 80044ae:	4c16      	ldr	r4, [pc, #88]	; (8004508 <USB_OTG_FS_init_device+0x12c>)
 80044b0:	6158      	str	r0, [r3, #20]
 80044b2:	625c      	str	r4, [r3, #36]	; 0x24
 80044b4:	4815      	ldr	r0, [pc, #84]	; (800450c <USB_OTG_FS_init_device+0x130>)
 80044b6:	621a      	str	r2, [r3, #32]
 80044b8:	2410      	movs	r4, #16
 80044ba:	e9c3 2200 	strd	r2, r2, [r3]
 80044be:	e9c3 220e 	strd	r2, r2, [r3, #56]	; 0x38
 80044c2:	6318      	str	r0, [r3, #48]	; 0x30
 80044c4:	f881 4343 	strb.w	r4, [r1, #835]	; 0x343
 80044c8:	2008      	movs	r0, #8
 80044ca:	641a      	str	r2, [r3, #64]	; 0x40
 80044cc:	4a10      	ldr	r2, [pc, #64]	; (8004510 <USB_OTG_FS_init_device+0x134>)
 80044ce:	6088      	str	r0, [r1, #8]
 80044d0:	bc30      	pop	{r4, r5}
 80044d2:	611a      	str	r2, [r3, #16]
 80044d4:	62da      	str	r2, [r3, #44]	; 0x2c
 80044d6:	649a      	str	r2, [r3, #72]	; 0x48
 80044d8:	4770      	bx	lr
 80044da:	bf00      	nop
 80044dc:	20009994 	.word	0x20009994
 80044e0:	50000800 	.word	0x50000800
 80044e4:	000c1018 	.word	0x000c1018
 80044e8:	40000040 	.word	0x40000040
 80044ec:	50000b00 	.word	0x50000b00
 80044f0:	010c0034 	.word	0x010c0034
 80044f4:	20008940 	.word	0x20008940
 80044f8:	08003ef5 	.word	0x08003ef5
 80044fc:	200099a8 	.word	0x200099a8
 8004500:	e000e100 	.word	0xe000e100
 8004504:	08003f85 	.word	0x08003f85
 8004508:	200099b0 	.word	0x200099b0
 800450c:	08004b11 	.word	0x08004b11
 8004510:	08004075 	.word	0x08004075

08004514 <OTG_FS_IRQHandler>:
 8004514:	e92d 43f0 	stmdb	sp!, {r4, r5, r6, r7, r8, r9, lr}
 8004518:	f04f 43a0 	mov.w	r3, #1342177280	; 0x50000000
 800451c:	b0a1      	sub	sp, #132	; 0x84
 800451e:	695a      	ldr	r2, [r3, #20]
 8004520:	f012 0208 	ands.w	r2, r2, #8
 8004524:	d138      	bne.n	8004598 <OTG_FS_IRQHandler+0x84>
 8004526:	6958      	ldr	r0, [r3, #20]
 8004528:	f410 5080 	ands.w	r0, r0, #4096	; 0x1000
 800452c:	d16f      	bne.n	800460e <OTG_FS_IRQHandler+0xfa>
 800452e:	695c      	ldr	r4, [r3, #20]
 8004530:	f414 2480 	ands.w	r4, r4, #262144	; 0x40000
 8004534:	d10a      	bne.n	800454c <OTG_FS_IRQHandler+0x38>
 8004536:	695a      	ldr	r2, [r3, #20]
 8004538:	f412 2200 	ands.w	r2, r2, #524288	; 0x80000
 800453c:	f040 808f 	bne.w	800465e <OTG_FS_IRQHandler+0x14a>
 8004540:	6959      	ldr	r1, [r3, #20]
 8004542:	06c9      	lsls	r1, r1, #27
 8004544:	d44f      	bmi.n	80045e6 <OTG_FS_IRQHandler+0xd2>
 8004546:	b021      	add	sp, #132	; 0x84
 8004548:	e8bd 83f0 	ldmia.w	sp!, {r4, r5, r6, r7, r8, r9, pc}
 800454c:	4ba2      	ldr	r3, [pc, #648]	; (80047d8 <OTG_FS_IRQHandler+0x2c4>)
 800454e:	699c      	ldr	r4, [r3, #24]
 8004550:	07e7      	lsls	r7, r4, #31
 8004552:	d50e      	bpl.n	8004572 <OTG_FS_IRQHandler+0x5e>
 8004554:	f8d3 5108 	ldr.w	r5, [r3, #264]	; 0x108
 8004558:	07ee      	lsls	r6, r5, #31
 800455a:	d502      	bpl.n	8004562 <OTG_FS_IRQHandler+0x4e>
 800455c:	4b9f      	ldr	r3, [pc, #636]	; (80047dc <OTG_FS_IRQHandler+0x2c8>)
 800455e:	691b      	ldr	r3, [r3, #16]
 8004560:	4798      	blx	r3
 8004562:	f04f 42a0 	mov.w	r2, #1342177280	; 0x50000000
 8004566:	499e      	ldr	r1, [pc, #632]	; (80047e0 <OTG_FS_IRQHandler+0x2cc>)
 8004568:	6953      	ldr	r3, [r2, #20]
 800456a:	f403 2380 	and.w	r3, r3, #262144	; 0x40000
 800456e:	6153      	str	r3, [r2, #20]
 8004570:	608d      	str	r5, [r1, #8]
 8004572:	07a0      	lsls	r0, r4, #30
 8004574:	d5e7      	bpl.n	8004546 <OTG_FS_IRQHandler+0x32>
 8004576:	4c9a      	ldr	r4, [pc, #616]	; (80047e0 <OTG_FS_IRQHandler+0x2cc>)
 8004578:	6aa3      	ldr	r3, [r4, #40]	; 0x28
 800457a:	07d9      	lsls	r1, r3, #31
 800457c:	d5e3      	bpl.n	8004546 <OTG_FS_IRQHandler+0x32>
 800457e:	4b97      	ldr	r3, [pc, #604]	; (80047dc <OTG_FS_IRQHandler+0x2c8>)
 8004580:	2001      	movs	r0, #1
 8004582:	6adb      	ldr	r3, [r3, #44]	; 0x2c
 8004584:	4798      	blx	r3
 8004586:	f04f 42a0 	mov.w	r2, #1342177280	; 0x50000000
 800458a:	2101      	movs	r1, #1
 800458c:	6953      	ldr	r3, [r2, #20]
 800458e:	f403 2380 	and.w	r3, r3, #262144	; 0x40000
 8004592:	6153      	str	r3, [r2, #20]
 8004594:	62a1      	str	r1, [r4, #40]	; 0x28
 8004596:	e7d6      	b.n	8004546 <OTG_FS_IRQHandler+0x32>
 8004598:	f8d3 2930 	ldr.w	r2, [r3, #2352]	; 0x930
 800459c:	4c91      	ldr	r4, [pc, #580]	; (80047e4 <OTG_FS_IRQHandler+0x2d0>)
 800459e:	f8d3 7930 	ldr.w	r7, [r3, #2352]	; 0x930
 80045a2:	f8d3 6920 	ldr.w	r6, [r3, #2336]	; 0x920
 80045a6:	f8d3 c928 	ldr.w	ip, [r3, #2344]	; 0x928
 80045aa:	4b8f      	ldr	r3, [pc, #572]	; (80047e8 <OTG_FS_IRQHandler+0x2d4>)
 80045ac:	8821      	ldrh	r1, [r4, #0]
 80045ae:	881b      	ldrh	r3, [r3, #0]
 80045b0:	428b      	cmp	r3, r1
 80045b2:	d00f      	beq.n	80045d4 <OTG_FS_IRQHandler+0xc0>
 80045b4:	488d      	ldr	r0, [pc, #564]	; (80047ec <OTG_FS_IRQHandler+0x2d8>)
 80045b6:	4d8e      	ldr	r5, [pc, #568]	; (80047f0 <OTG_FS_IRQHandler+0x2dc>)
 80045b8:	6800      	ldr	r0, [r0, #0]
 80045ba:	f3c2 0212 	ubfx	r2, r2, #0, #19
 80045be:	403d      	ands	r5, r7
 80045c0:	f000 0008 	and.w	r0, r0, #8
 80045c4:	432a      	orrs	r2, r5
 80045c6:	4302      	orrs	r2, r0
 80045c8:	d104      	bne.n	80045d4 <OTG_FS_IRQHandler+0xc0>
 80045ca:	43f6      	mvns	r6, r6
 80045cc:	0ff6      	lsrs	r6, r6, #31
 80045ce:	ea16 12dc 	ands.w	r2, r6, ip, lsr #7
 80045d2:	d170      	bne.n	80046b6 <OTG_FS_IRQHandler+0x1a2>
 80045d4:	f04f 42a0 	mov.w	r2, #1342177280	; 0x50000000
 80045d8:	6953      	ldr	r3, [r2, #20]
 80045da:	f003 0308 	and.w	r3, r3, #8
 80045de:	6153      	str	r3, [r2, #20]
 80045e0:	b021      	add	sp, #132	; 0x84
 80045e2:	e8bd 83f0 	ldmia.w	sp!, {r4, r5, r6, r7, r8, r9, pc}
 80045e6:	6a18      	ldr	r0, [r3, #32]
 80045e8:	6999      	ldr	r1, [r3, #24]
 80045ea:	f3c0 4443 	ubfx	r4, r0, #17, #4
 80045ee:	f021 0110 	bic.w	r1, r1, #16
 80045f2:	2c02      	cmp	r4, #2
 80045f4:	6199      	str	r1, [r3, #24]
 80045f6:	f000 8121 	beq.w	800483c <OTG_FS_IRQHandler+0x328>
 80045fa:	2c06      	cmp	r4, #6
 80045fc:	f000 80a8 	beq.w	8004750 <OTG_FS_IRQHandler+0x23c>
 8004600:	f04f 42a0 	mov.w	r2, #1342177280	; 0x50000000
 8004604:	6993      	ldr	r3, [r2, #24]
 8004606:	f043 0310 	orr.w	r3, r3, #16
 800460a:	6193      	str	r3, [r2, #24]
 800460c:	e79b      	b.n	8004546 <OTG_FS_IRQHandler+0x32>
 800460e:	6959      	ldr	r1, [r3, #20]
 8004610:	4c76      	ldr	r4, [pc, #472]	; (80047ec <OTG_FS_IRQHandler+0x2d8>)
 8004612:	2001      	movs	r0, #1
 8004614:	f401 5180 	and.w	r1, r1, #4096	; 0x1000
 8004618:	6159      	str	r1, [r3, #20]
 800461a:	6020      	str	r0, [r4, #0]
 800461c:	496e      	ldr	r1, [pc, #440]	; (80047d8 <OTG_FS_IRQHandler+0x2c4>)
 800461e:	695d      	ldr	r5, [r3, #20]
 8004620:	615a      	str	r2, [r3, #20]
 8004622:	f04f 1403 	mov.w	r4, #196611	; 0x30003
 8004626:	2309      	movs	r3, #9
 8004628:	61cc      	str	r4, [r1, #28]
 800462a:	614b      	str	r3, [r1, #20]
 800462c:	6108      	str	r0, [r1, #16]
 800462e:	6808      	ldr	r0, [r1, #0]
 8004630:	4b70      	ldr	r3, [pc, #448]	; (80047f4 <OTG_FS_IRQHandler+0x2e0>)
 8004632:	4c6b      	ldr	r4, [pc, #428]	; (80047e0 <OTG_FS_IRQHandler+0x2cc>)
 8004634:	f420 60fe 	bic.w	r0, r0, #2032	; 0x7f0
 8004638:	6008      	str	r0, [r1, #0]
 800463a:	486f      	ldr	r0, [pc, #444]	; (80047f8 <OTG_FS_IRQHandler+0x2e4>)
 800463c:	496f      	ldr	r1, [pc, #444]	; (80047fc <OTG_FS_IRQHandler+0x2e8>)
 800463e:	6220      	str	r0, [r4, #32]
 8004640:	6219      	str	r1, [r3, #32]
 8004642:	631a      	str	r2, [r3, #48]	; 0x30
 8004644:	6b1a      	ldr	r2, [r3, #48]	; 0x30
 8004646:	496e      	ldr	r1, [pc, #440]	; (8004800 <OTG_FS_IRQHandler+0x2ec>)
 8004648:	f442 2200 	orr.w	r2, r2, #524288	; 0x80000
 800464c:	631a      	str	r2, [r3, #48]	; 0x30
 800464e:	6b1a      	ldr	r2, [r3, #48]	; 0x30
 8004650:	f042 0240 	orr.w	r2, r2, #64	; 0x40
 8004654:	631a      	str	r2, [r3, #48]	; 0x30
 8004656:	6421      	str	r1, [r4, #64]	; 0x40
 8004658:	b021      	add	sp, #132	; 0x84
 800465a:	e8bd 83f0 	ldmia.w	sp!, {r4, r5, r6, r7, r8, r9, pc}
 800465e:	695a      	ldr	r2, [r3, #20]
 8004660:	4e5d      	ldr	r6, [pc, #372]	; (80047d8 <OTG_FS_IRQHandler+0x2c4>)
 8004662:	f402 2200 	and.w	r2, r2, #524288	; 0x80000
 8004666:	615a      	str	r2, [r3, #20]
 8004668:	69b5      	ldr	r5, [r6, #24]
 800466a:	03ea      	lsls	r2, r5, #15
 800466c:	d507      	bpl.n	800467e <OTG_FS_IRQHandler+0x16a>
 800466e:	4b61      	ldr	r3, [pc, #388]	; (80047f4 <OTG_FS_IRQHandler+0x2e0>)
 8004670:	689f      	ldr	r7, [r3, #8]
 8004672:	073b      	lsls	r3, r7, #28
 8004674:	d43c      	bmi.n	80046f0 <OTG_FS_IRQHandler+0x1dc>
 8004676:	07fe      	lsls	r6, r7, #31
 8004678:	d413      	bmi.n	80046a2 <OTG_FS_IRQHandler+0x18e>
 800467a:	4b5e      	ldr	r3, [pc, #376]	; (80047f4 <OTG_FS_IRQHandler+0x2e0>)
 800467c:	609f      	str	r7, [r3, #8]
 800467e:	03ac      	lsls	r4, r5, #14
 8004680:	f57f af61 	bpl.w	8004546 <OTG_FS_IRQHandler+0x32>
 8004684:	4d5b      	ldr	r5, [pc, #364]	; (80047f4 <OTG_FS_IRQHandler+0x2e0>)
 8004686:	6aac      	ldr	r4, [r5, #40]	; 0x28
 8004688:	07e0      	lsls	r0, r4, #31
 800468a:	d507      	bpl.n	800469c <OTG_FS_IRQHandler+0x188>
 800468c:	4b53      	ldr	r3, [pc, #332]	; (80047dc <OTG_FS_IRQHandler+0x2c8>)
 800468e:	2001      	movs	r0, #1
 8004690:	6b1b      	ldr	r3, [r3, #48]	; 0x30
 8004692:	4798      	blx	r3
 8004694:	6a2b      	ldr	r3, [r5, #32]
 8004696:	f043 4304 	orr.w	r3, r3, #2214592512	; 0x84000000
 800469a:	622b      	str	r3, [r5, #32]
 800469c:	4b55      	ldr	r3, [pc, #340]	; (80047f4 <OTG_FS_IRQHandler+0x2e0>)
 800469e:	629c      	str	r4, [r3, #40]	; 0x28
 80046a0:	e751      	b.n	8004546 <OTG_FS_IRQHandler+0x32>
 80046a2:	4b4e      	ldr	r3, [pc, #312]	; (80047dc <OTG_FS_IRQHandler+0x2c8>)
 80046a4:	2000      	movs	r0, #0
 80046a6:	695b      	ldr	r3, [r3, #20]
 80046a8:	4798      	blx	r3
 80046aa:	4a52      	ldr	r2, [pc, #328]	; (80047f4 <OTG_FS_IRQHandler+0x2e0>)
 80046ac:	6813      	ldr	r3, [r2, #0]
 80046ae:	f043 4304 	orr.w	r3, r3, #2214592512	; 0x84000000
 80046b2:	6013      	str	r3, [r2, #0]
 80046b4:	e7e1      	b.n	800467a <OTG_FS_IRQHandler+0x166>
 80046b6:	428b      	cmp	r3, r1
 80046b8:	bf8c      	ite	hi
 80046ba:	1a5a      	subhi	r2, r3, r1
 80046bc:	1aca      	subls	r2, r1, r3
 80046be:	b292      	uxth	r2, r2
 80046c0:	f5b2 7f00 	cmp.w	r2, #512	; 0x200
 80046c4:	bf28      	it	cs
 80046c6:	f44f 7200 	movcs.w	r2, #512	; 0x200
 80046ca:	1853      	adds	r3, r2, r1
 80046cc:	f5b3 5f80 	cmp.w	r3, #4096	; 0x1000
 80046d0:	bfac      	ite	ge
 80046d2:	2300      	movge	r3, #0
 80046d4:	b29b      	uxthlt	r3, r3
 80046d6:	484b      	ldr	r0, [pc, #300]	; (8004804 <OTG_FS_IRQHandler+0x2f0>)
 80046d8:	8023      	strh	r3, [r4, #0]
 80046da:	4b40      	ldr	r3, [pc, #256]	; (80047dc <OTG_FS_IRQHandler+0x2c8>)
 80046dc:	bfa8      	it	ge
 80046de:	f5c1 5280 	rsbge	r2, r1, #4096	; 0x1000
 80046e2:	6b5b      	ldr	r3, [r3, #52]	; 0x34
 80046e4:	4401      	add	r1, r0
 80046e6:	bfa8      	it	ge
 80046e8:	b292      	uxthge	r2, r2
 80046ea:	2001      	movs	r0, #1
 80046ec:	4798      	blx	r3
 80046ee:	e771      	b.n	80045d4 <OTG_FS_IRQHandler+0xc0>
 80046f0:	f8df 9114 	ldr.w	r9, [pc, #276]	; 8004808 <OTG_FS_IRQHandler+0x2f4>
 80046f4:	9400      	str	r4, [sp, #0]
 80046f6:	227c      	movs	r2, #124	; 0x7c
 80046f8:	4621      	mov	r1, r4
 80046fa:	a801      	add	r0, sp, #4
 80046fc:	f8b9 8006 	ldrh.w	r8, [r9, #6]
 8004700:	f7fb fe44 	bl	800038c <memset>
 8004704:	f8b9 0000 	ldrh.w	r0, [r9]
 8004708:	f5b0 6f10 	cmp.w	r0, #2304	; 0x900
 800470c:	f000 8124 	beq.w	8004958 <OTG_FS_IRQHandler+0x444>
 8004710:	f200 80e0 	bhi.w	80048d4 <OTG_FS_IRQHandler+0x3c0>
 8004714:	f5b0 6fa0 	cmp.w	r0, #1280	; 0x500
 8004718:	f000 8122 	beq.w	8004960 <OTG_FS_IRQHandler+0x44c>
 800471c:	f5b0 6fd0 	cmp.w	r0, #1664	; 0x680
 8004720:	f040 80d1 	bne.w	80048c6 <OTG_FS_IRQHandler+0x3b2>
 8004724:	f8b9 3002 	ldrh.w	r3, [r9, #2]
 8004728:	f240 3205 	movw	r2, #773	; 0x305
 800472c:	4293      	cmp	r3, r2
 800472e:	f200 8138 	bhi.w	80049a2 <OTG_FS_IRQHandler+0x48e>
 8004732:	f5b3 7f40 	cmp.w	r3, #768	; 0x300
 8004736:	f0c0 811f 	bcc.w	8004978 <OTG_FS_IRQHandler+0x464>
 800473a:	f46f 7c40 	mvn.w	ip, #768	; 0x300
 800473e:	4463      	add	r3, ip
 8004740:	2b04      	cmp	r3, #4
 8004742:	f200 814e 	bhi.w	80049e2 <OTG_FS_IRQHandler+0x4ce>
 8004746:	e8df f003 	tbb	[pc, r3]
 800474a:	2b39      	.short	0x2b39
 800474c:	0a1d      	.short	0x0a1d
 800474e:	6b          	.byte	0x6b
 800474f:	00          	.byte	0x00
 8004750:	4a2e      	ldr	r2, [pc, #184]	; (800480c <OTG_FS_IRQHandler+0x2f8>)
 8004752:	4b2d      	ldr	r3, [pc, #180]	; (8004808 <OTG_FS_IRQHandler+0x2f4>)
 8004754:	6811      	ldr	r1, [r2, #0]
 8004756:	6019      	str	r1, [r3, #0]
 8004758:	6812      	ldr	r2, [r2, #0]
 800475a:	605a      	str	r2, [r3, #4]
 800475c:	e750      	b.n	8004600 <OTG_FS_IRQHandler+0xec>
 800475e:	f1b8 0f16 	cmp.w	r8, #22
 8004762:	466b      	mov	r3, sp
 8004764:	bf28      	it	cs
 8004766:	f04f 0816 	movcs.w	r8, #22
 800476a:	4618      	mov	r0, r3
 800476c:	4928      	ldr	r1, [pc, #160]	; (8004810 <OTG_FS_IRQHandler+0x2fc>)
 800476e:	4e1b      	ldr	r6, [pc, #108]	; (80047dc <OTG_FS_IRQHandler+0x2c8>)
 8004770:	4642      	mov	r2, r8
 8004772:	f7fb fd71 	bl	8000258 <memcpy>
 8004776:	4603      	mov	r3, r0
 8004778:	69b4      	ldr	r4, [r6, #24]
 800477a:	4642      	mov	r2, r8
 800477c:	4619      	mov	r1, r3
 800477e:	2000      	movs	r0, #0
 8004780:	47a0      	blx	r4
 8004782:	e778      	b.n	8004676 <OTG_FS_IRQHandler+0x162>
 8004784:	f1b8 0f1a 	cmp.w	r8, #26
 8004788:	466b      	mov	r3, sp
 800478a:	bf28      	it	cs
 800478c:	f04f 081a 	movcs.w	r8, #26
 8004790:	4618      	mov	r0, r3
 8004792:	4920      	ldr	r1, [pc, #128]	; (8004814 <OTG_FS_IRQHandler+0x300>)
 8004794:	4e11      	ldr	r6, [pc, #68]	; (80047dc <OTG_FS_IRQHandler+0x2c8>)
 8004796:	4642      	mov	r2, r8
 8004798:	f7fb fd5e 	bl	8000258 <memcpy>
 800479c:	4603      	mov	r3, r0
 800479e:	e7eb      	b.n	8004778 <OTG_FS_IRQHandler+0x264>
 80047a0:	f1b8 0f2c 	cmp.w	r8, #44	; 0x2c
 80047a4:	466b      	mov	r3, sp
 80047a6:	bf28      	it	cs
 80047a8:	f04f 082c 	movcs.w	r8, #44	; 0x2c
 80047ac:	4618      	mov	r0, r3
 80047ae:	491a      	ldr	r1, [pc, #104]	; (8004818 <OTG_FS_IRQHandler+0x304>)
 80047b0:	4e0a      	ldr	r6, [pc, #40]	; (80047dc <OTG_FS_IRQHandler+0x2c8>)
 80047b2:	4642      	mov	r2, r8
 80047b4:	f7fb fd50 	bl	8000258 <memcpy>
 80047b8:	4603      	mov	r3, r0
 80047ba:	e7dd      	b.n	8004778 <OTG_FS_IRQHandler+0x264>
 80047bc:	f1b8 0f26 	cmp.w	r8, #38	; 0x26
 80047c0:	466b      	mov	r3, sp
 80047c2:	bf28      	it	cs
 80047c4:	f04f 0826 	movcs.w	r8, #38	; 0x26
 80047c8:	4618      	mov	r0, r3
 80047ca:	4914      	ldr	r1, [pc, #80]	; (800481c <OTG_FS_IRQHandler+0x308>)
 80047cc:	4e03      	ldr	r6, [pc, #12]	; (80047dc <OTG_FS_IRQHandler+0x2c8>)
 80047ce:	4642      	mov	r2, r8
 80047d0:	f7fb fd42 	bl	8000258 <memcpy>
 80047d4:	4603      	mov	r3, r0
 80047d6:	e7cf      	b.n	8004778 <OTG_FS_IRQHandler+0x264>
 80047d8:	50000800 	.word	0x50000800
 80047dc:	20008940 	.word	0x20008940
 80047e0:	50000900 	.word	0x50000900
 80047e4:	200099a4 	.word	0x200099a4
 80047e8:	20009a38 	.word	0x20009a38
 80047ec:	20009994 	.word	0x20009994
 80047f0:	1ff80000 	.word	0x1ff80000
 80047f4:	50000b00 	.word	0x50000b00
 80047f8:	08488040 	.word	0x08488040
 80047fc:	84088040 	.word	0x84088040
 8004800:	088c8008 	.word	0x088c8008
 8004804:	20008994 	.word	0x20008994
 8004808:	20009a30 	.word	0x20009a30
 800480c:	50001000 	.word	0x50001000
 8004810:	08004c1c 	.word	0x08004c1c
 8004814:	08004cac 	.word	0x08004cac
 8004818:	08004c80 	.word	0x08004c80
 800481c:	08004c58 	.word	0x08004c58
 8004820:	f1b8 0f1c 	cmp.w	r8, #28
 8004824:	466b      	mov	r3, sp
 8004826:	bf28      	it	cs
 8004828:	f04f 081c 	movcs.w	r8, #28
 800482c:	4618      	mov	r0, r3
 800482e:	4974      	ldr	r1, [pc, #464]	; (8004a00 <OTG_FS_IRQHandler+0x4ec>)
 8004830:	4e74      	ldr	r6, [pc, #464]	; (8004a04 <OTG_FS_IRQHandler+0x4f0>)
 8004832:	4642      	mov	r2, r8
 8004834:	f7fb fd10 	bl	8000258 <memcpy>
 8004838:	4603      	mov	r3, r0
 800483a:	e79d      	b.n	8004778 <OTG_FS_IRQHandler+0x264>
 800483c:	f647 73f0 	movw	r3, #32752	; 0x7ff0
 8004840:	4218      	tst	r0, r3
 8004842:	f43f aedd 	beq.w	8004600 <OTG_FS_IRQHandler+0xec>
 8004846:	f010 0330 	ands.w	r3, r0, #48	; 0x30
 800484a:	f000 050f 	and.w	r5, r0, #15
 800484e:	bf18      	it	ne
 8004850:	2301      	movne	r3, #1
 8004852:	f3c0 170a 	ubfx	r7, r0, #4, #11
 8004856:	4e6b      	ldr	r6, [pc, #428]	; (8004a04 <OTG_FS_IRQHandler+0x4f0>)
 8004858:	f3c0 1088 	ubfx	r0, r0, #6, #9
 800485c:	4418      	add	r0, r3
 800485e:	ebc5 03c5 	rsb	r3, r5, r5, lsl #3
 8004862:	eb06 0383 	add.w	r3, r6, r3, lsl #2
 8004866:	ea4f 0cc5 	mov.w	ip, r5, lsl #3
 800486a:	8899      	ldrh	r1, [r3, #4]
 800486c:	f8d3 e008 	ldr.w	lr, [r3, #8]
 8004870:	19cb      	adds	r3, r1, r7
 8004872:	2b80      	cmp	r3, #128	; 0x80
 8004874:	d959      	bls.n	800492a <OTG_FS_IRQHandler+0x416>
 8004876:	2d01      	cmp	r5, #1
 8004878:	d157      	bne.n	800492a <OTG_FS_IRQHandler+0x416>
 800487a:	4b63      	ldr	r3, [pc, #396]	; (8004a08 <OTG_FS_IRQHandler+0x4f4>)
 800487c:	8432      	strh	r2, [r6, #32]
 800487e:	6273      	str	r3, [r6, #36]	; 0x24
 8004880:	2800      	cmp	r0, #0
 8004882:	d03f      	beq.n	8004904 <OTG_FS_IRQHandler+0x3f0>
 8004884:	f8df 8180 	ldr.w	r8, [pc, #384]	; 8004a08 <OTG_FS_IRQHandler+0x4f4>
 8004888:	4c60      	ldr	r4, [pc, #384]	; (8004a0c <OTG_FS_IRQHandler+0x4f8>)
 800488a:	4643      	mov	r3, r8
 800488c:	3201      	adds	r2, #1
 800488e:	6821      	ldr	r1, [r4, #0]
 8004890:	f843 1b04 	str.w	r1, [r3], #4
 8004894:	4290      	cmp	r0, r2
 8004896:	d8f9      	bhi.n	800488c <OTG_FS_IRQHandler+0x378>
 8004898:	2800      	cmp	r0, #0
 800489a:	ebac 0205 	sub.w	r2, ip, r5
 800489e:	ea4f 0080 	mov.w	r0, r0, lsl #2
 80048a2:	eb06 0282 	add.w	r2, r6, r2, lsl #2
 80048a6:	bf08      	it	eq
 80048a8:	2004      	moveq	r0, #4
 80048aa:	4440      	add	r0, r8
 80048ac:	6090      	str	r0, [r2, #8]
 80048ae:	bb4d      	cbnz	r5, 8004904 <OTG_FS_IRQHandler+0x3f0>
 80048b0:	ebac 0505 	sub.w	r5, ip, r5
 80048b4:	eb06 0685 	add.w	r6, r6, r5, lsl #2
 80048b8:	eb0e 0307 	add.w	r3, lr, r7
 80048bc:	88b2      	ldrh	r2, [r6, #4]
 80048be:	60b3      	str	r3, [r6, #8]
 80048c0:	4417      	add	r7, r2
 80048c2:	80b7      	strh	r7, [r6, #4]
 80048c4:	e69c      	b.n	8004600 <OTG_FS_IRQHandler+0xec>
 80048c6:	f5b0 7f81 	cmp.w	r0, #258	; 0x102
 80048ca:	f43f aed4 	beq.w	8004676 <OTG_FS_IRQHandler+0x162>
 80048ce:	4e4d      	ldr	r6, [pc, #308]	; (8004a04 <OTG_FS_IRQHandler+0x4f0>)
 80048d0:	466b      	mov	r3, sp
 80048d2:	e751      	b.n	8004778 <OTG_FS_IRQHandler+0x264>
 80048d4:	f242 13a1 	movw	r3, #8609	; 0x21a1
 80048d8:	4298      	cmp	r0, r3
 80048da:	d02a      	beq.n	8004932 <OTG_FS_IRQHandler+0x41e>
 80048dc:	f242 2321 	movw	r3, #8737	; 0x2221
 80048e0:	4298      	cmp	r0, r3
 80048e2:	d104      	bne.n	80048ee <OTG_FS_IRQHandler+0x3da>
 80048e4:	4e47      	ldr	r6, [pc, #284]	; (8004a04 <OTG_FS_IRQHandler+0x4f0>)
 80048e6:	f04f 0800 	mov.w	r8, #0
 80048ea:	466b      	mov	r3, sp
 80048ec:	e744      	b.n	8004778 <OTG_FS_IRQHandler+0x264>
 80048ee:	f242 0321 	movw	r3, #8225	; 0x2021
 80048f2:	4298      	cmp	r0, r3
 80048f4:	4e43      	ldr	r6, [pc, #268]	; (8004a04 <OTG_FS_IRQHandler+0x4f0>)
 80048f6:	d1f8      	bne.n	80048ea <OTG_FS_IRQHandler+0x3d6>
 80048f8:	6973      	ldr	r3, [r6, #20]
 80048fa:	4798      	blx	r3
 80048fc:	f04f 0800 	mov.w	r8, #0
 8004900:	466b      	mov	r3, sp
 8004902:	e739      	b.n	8004778 <OTG_FS_IRQHandler+0x264>
 8004904:	f105 7320 	add.w	r3, r5, #41943040	; 0x2800000
 8004908:	3358      	adds	r3, #88	; 0x58
 800490a:	015b      	lsls	r3, r3, #5
 800490c:	2200      	movs	r2, #0
 800490e:	611a      	str	r2, [r3, #16]
 8004910:	691a      	ldr	r2, [r3, #16]
 8004912:	f442 2200 	orr.w	r2, r2, #524288	; 0x80000
 8004916:	611a      	str	r2, [r3, #16]
 8004918:	691a      	ldr	r2, [r3, #16]
 800491a:	f042 0240 	orr.w	r2, r2, #64	; 0x40
 800491e:	611a      	str	r2, [r3, #16]
 8004920:	681a      	ldr	r2, [r3, #0]
 8004922:	f042 4204 	orr.w	r2, r2, #2214592512	; 0x84000000
 8004926:	601a      	str	r2, [r3, #0]
 8004928:	e7c2      	b.n	80048b0 <OTG_FS_IRQHandler+0x39c>
 800492a:	46f0      	mov	r8, lr
 800492c:	2800      	cmp	r0, #0
 800492e:	d1ab      	bne.n	8004888 <OTG_FS_IRQHandler+0x374>
 8004930:	e7bd      	b.n	80048ae <OTG_FS_IRQHandler+0x39a>
 8004932:	f1b8 0f07 	cmp.w	r8, #7
 8004936:	466b      	mov	r3, sp
 8004938:	bf28      	it	cs
 800493a:	f04f 0807 	movcs.w	r8, #7
 800493e:	4934      	ldr	r1, [pc, #208]	; (8004a10 <OTG_FS_IRQHandler+0x4fc>)
 8004940:	4e30      	ldr	r6, [pc, #192]	; (8004a04 <OTG_FS_IRQHandler+0x4f0>)
 8004942:	4642      	mov	r2, r8
 8004944:	4618      	mov	r0, r3
 8004946:	f7fb fc87 	bl	8000258 <memcpy>
 800494a:	4932      	ldr	r1, [pc, #200]	; (8004a14 <OTG_FS_IRQHandler+0x500>)
 800494c:	680a      	ldr	r2, [r1, #0]
 800494e:	f042 0204 	orr.w	r2, r2, #4
 8004952:	4603      	mov	r3, r0
 8004954:	600a      	str	r2, [r1, #0]
 8004956:	e70f      	b.n	8004778 <OTG_FS_IRQHandler+0x264>
 8004958:	4e2a      	ldr	r6, [pc, #168]	; (8004a04 <OTG_FS_IRQHandler+0x4f0>)
 800495a:	46a0      	mov	r8, r4
 800495c:	466b      	mov	r3, sp
 800495e:	e70b      	b.n	8004778 <OTG_FS_IRQHandler+0x264>
 8004960:	f8b9 2002 	ldrh.w	r2, [r9, #2]
 8004964:	6833      	ldr	r3, [r6, #0]
 8004966:	ea43 1302 	orr.w	r3, r3, r2, lsl #4
 800496a:	4a2a      	ldr	r2, [pc, #168]	; (8004a14 <OTG_FS_IRQHandler+0x500>)
 800496c:	6033      	str	r3, [r6, #0]
 800496e:	6813      	ldr	r3, [r2, #0]
 8004970:	f043 0302 	orr.w	r3, r3, #2
 8004974:	6013      	str	r3, [r2, #0]
 8004976:	e7aa      	b.n	80048ce <OTG_FS_IRQHandler+0x3ba>
 8004978:	f5b3 7f80 	cmp.w	r3, #256	; 0x100
 800497c:	d023      	beq.n	80049c6 <OTG_FS_IRQHandler+0x4b2>
 800497e:	f5b3 7f00 	cmp.w	r3, #512	; 0x200
 8004982:	f47f ae78 	bne.w	8004676 <OTG_FS_IRQHandler+0x162>
 8004986:	f1b8 0f43 	cmp.w	r8, #67	; 0x43
 800498a:	466b      	mov	r3, sp
 800498c:	bf28      	it	cs
 800498e:	f04f 0843 	movcs.w	r8, #67	; 0x43
 8004992:	4618      	mov	r0, r3
 8004994:	4920      	ldr	r1, [pc, #128]	; (8004a18 <OTG_FS_IRQHandler+0x504>)
 8004996:	4e1b      	ldr	r6, [pc, #108]	; (8004a04 <OTG_FS_IRQHandler+0x4f0>)
 8004998:	4642      	mov	r2, r8
 800499a:	f7fb fc5d 	bl	8000258 <memcpy>
 800499e:	4603      	mov	r3, r0
 80049a0:	e6ea      	b.n	8004778 <OTG_FS_IRQHandler+0x264>
 80049a2:	f5b3 6fc0 	cmp.w	r3, #1536	; 0x600
 80049a6:	f47f ae66 	bne.w	8004676 <OTG_FS_IRQHandler+0x162>
 80049aa:	f1b8 0f0a 	cmp.w	r8, #10
 80049ae:	466b      	mov	r3, sp
 80049b0:	bf28      	it	cs
 80049b2:	f04f 080a 	movcs.w	r8, #10
 80049b6:	4618      	mov	r0, r3
 80049b8:	4918      	ldr	r1, [pc, #96]	; (8004a1c <OTG_FS_IRQHandler+0x508>)
 80049ba:	4e12      	ldr	r6, [pc, #72]	; (8004a04 <OTG_FS_IRQHandler+0x4f0>)
 80049bc:	4642      	mov	r2, r8
 80049be:	f7fb fc4b 	bl	8000258 <memcpy>
 80049c2:	4603      	mov	r3, r0
 80049c4:	e6d8      	b.n	8004778 <OTG_FS_IRQHandler+0x264>
 80049c6:	f1b8 0f12 	cmp.w	r8, #18
 80049ca:	466b      	mov	r3, sp
 80049cc:	bf28      	it	cs
 80049ce:	f04f 0812 	movcs.w	r8, #18
 80049d2:	4618      	mov	r0, r3
 80049d4:	4912      	ldr	r1, [pc, #72]	; (8004a20 <OTG_FS_IRQHandler+0x50c>)
 80049d6:	4e0b      	ldr	r6, [pc, #44]	; (8004a04 <OTG_FS_IRQHandler+0x4f0>)
 80049d8:	4642      	mov	r2, r8
 80049da:	f7fb fc3d 	bl	8000258 <memcpy>
 80049de:	4603      	mov	r3, r0
 80049e0:	e6ca      	b.n	8004778 <OTG_FS_IRQHandler+0x264>
 80049e2:	f1b8 0f04 	cmp.w	r8, #4
 80049e6:	466b      	mov	r3, sp
 80049e8:	bf28      	it	cs
 80049ea:	f04f 0804 	movcs.w	r8, #4
 80049ee:	4618      	mov	r0, r3
 80049f0:	490c      	ldr	r1, [pc, #48]	; (8004a24 <OTG_FS_IRQHandler+0x510>)
 80049f2:	4e04      	ldr	r6, [pc, #16]	; (8004a04 <OTG_FS_IRQHandler+0x4f0>)
 80049f4:	4642      	mov	r2, r8
 80049f6:	f7fb fc2f 	bl	8000258 <memcpy>
 80049fa:	4603      	mov	r3, r0
 80049fc:	e6bc      	b.n	8004778 <OTG_FS_IRQHandler+0x264>
 80049fe:	bf00      	nop
 8004a00:	08004cc8 	.word	0x08004cc8
 8004a04:	20008940 	.word	0x20008940
 8004a08:	200099b0 	.word	0x200099b0
 8004a0c:	50001000 	.word	0x50001000
 8004a10:	2000999c 	.word	0x2000999c
 8004a14:	20009994 	.word	0x20009994
 8004a18:	08004bd8 	.word	0x08004bd8
 8004a1c:	08004c48 	.word	0x08004c48
 8004a20:	08004c34 	.word	0x08004c34
 8004a24:	08004c54 	.word	0x08004c54

08004a28 <check_USB_device_status>:
 8004a28:	4b03      	ldr	r3, [pc, #12]	; (8004a38 <check_USB_device_status+0x10>)
 8004a2a:	681b      	ldr	r3, [r3, #0]
 8004a2c:	4218      	tst	r0, r3
 8004a2e:	bf14      	ite	ne
 8004a30:	2001      	movne	r0, #1
 8004a32:	2000      	moveq	r0, #0
 8004a34:	4770      	bx	lr
 8004a36:	bf00      	nop
 8004a38:	20009994 	.word	0x20009994

08004a3c <USB_CDC_process_watchdog>:
 8004a3c:	490c      	ldr	r1, [pc, #48]	; (8004a70 <USB_CDC_process_watchdog+0x34>)
 8004a3e:	680b      	ldr	r3, [r1, #0]
 8004a40:	f013 0002 	ands.w	r0, r3, #2
 8004a44:	d00c      	beq.n	8004a60 <USB_CDC_process_watchdog+0x24>
 8004a46:	4a0b      	ldr	r2, [pc, #44]	; (8004a74 <USB_CDC_process_watchdog+0x38>)
 8004a48:	480b      	ldr	r0, [pc, #44]	; (8004a78 <USB_CDC_process_watchdog+0x3c>)
 8004a4a:	b410      	push	{r4}
 8004a4c:	6894      	ldr	r4, [r2, #8]
 8004a4e:	4a0b      	ldr	r2, [pc, #44]	; (8004a7c <USB_CDC_process_watchdog+0x40>)
 8004a50:	4022      	ands	r2, r4
 8004a52:	6804      	ldr	r4, [r0, #0]
 8004a54:	4294      	cmp	r4, r2
 8004a56:	d004      	beq.n	8004a62 <USB_CDC_process_watchdog+0x26>
 8004a58:	6002      	str	r2, [r0, #0]
 8004a5a:	bc10      	pop	{r4}
 8004a5c:	2002      	movs	r0, #2
 8004a5e:	4770      	bx	lr
 8004a60:	4770      	bx	lr
 8004a62:	f023 0302 	bic.w	r3, r3, #2
 8004a66:	2001      	movs	r0, #1
 8004a68:	bc10      	pop	{r4}
 8004a6a:	600b      	str	r3, [r1, #0]
 8004a6c:	4770      	bx	lr
 8004a6e:	bf00      	nop
 8004a70:	20009994 	.word	0x20009994
 8004a74:	50000800 	.word	0x50000800
 8004a78:	20009998 	.word	0x20009998
 8004a7c:	003fff00 	.word	0x003fff00

08004a80 <USB_CDC_send_data>:
 8004a80:	b399      	cbz	r1, 8004aea <USB_CDC_send_data+0x6a>
 8004a82:	e92d 43f8 	stmdb	sp!, {r3, r4, r5, r6, r7, r8, r9, lr}
 8004a86:	4f1f      	ldr	r7, [pc, #124]	; (8004b04 <USB_CDC_send_data+0x84>)
 8004a88:	4b1f      	ldr	r3, [pc, #124]	; (8004b08 <USB_CDC_send_data+0x88>)
 8004a8a:	883d      	ldrh	r5, [r7, #0]
 8004a8c:	881b      	ldrh	r3, [r3, #0]
 8004a8e:	429d      	cmp	r5, r3
 8004a90:	4606      	mov	r6, r0
 8004a92:	460c      	mov	r4, r1
 8004a94:	d009      	beq.n	8004aaa <USB_CDC_send_data+0x2a>
 8004a96:	bf8c      	ite	hi
 8004a98:	1aeb      	subhi	r3, r5, r3
 8004a9a:	1b5b      	subls	r3, r3, r5
 8004a9c:	f5c3 5380 	rsb	r3, r3, #4096	; 0x1000
 8004aa0:	429c      	cmp	r4, r3
 8004aa2:	d906      	bls.n	8004ab2 <USB_CDC_send_data+0x32>
 8004aa4:	2000      	movs	r0, #0
 8004aa6:	e8bd 83f8 	ldmia.w	sp!, {r3, r4, r5, r6, r7, r8, r9, pc}
 8004aaa:	f44f 5380 	mov.w	r3, #4096	; 0x1000
 8004aae:	429c      	cmp	r4, r3
 8004ab0:	d8f8      	bhi.n	8004aa4 <USB_CDC_send_data+0x24>
 8004ab2:	eb05 0804 	add.w	r8, r5, r4
 8004ab6:	f5b8 5f80 	cmp.w	r8, #4096	; 0x1000
 8004aba:	db18      	blt.n	8004aee <USB_CDC_send_data+0x6e>
 8004abc:	f8df 804c 	ldr.w	r8, [pc, #76]	; 8004b0c <USB_CDC_send_data+0x8c>
 8004ac0:	f5c5 5980 	rsb	r9, r5, #4096	; 0x1000
 8004ac4:	eb08 0005 	add.w	r0, r8, r5
 8004ac8:	f5a5 5580 	sub.w	r5, r5, #4096	; 0x1000
 8004acc:	464a      	mov	r2, r9
 8004ace:	4631      	mov	r1, r6
 8004ad0:	442c      	add	r4, r5
 8004ad2:	f7fb fbc1 	bl	8000258 <memcpy>
 8004ad6:	eb06 0109 	add.w	r1, r6, r9
 8004ada:	4622      	mov	r2, r4
 8004adc:	4640      	mov	r0, r8
 8004ade:	f7fb fbbb 	bl	8000258 <memcpy>
 8004ae2:	803c      	strh	r4, [r7, #0]
 8004ae4:	2001      	movs	r0, #1
 8004ae6:	e8bd 83f8 	ldmia.w	sp!, {r3, r4, r5, r6, r7, r8, r9, pc}
 8004aea:	2001      	movs	r0, #1
 8004aec:	4770      	bx	lr
 8004aee:	4807      	ldr	r0, [pc, #28]	; (8004b0c <USB_CDC_send_data+0x8c>)
 8004af0:	4622      	mov	r2, r4
 8004af2:	4631      	mov	r1, r6
 8004af4:	4428      	add	r0, r5
 8004af6:	f7fb fbaf 	bl	8000258 <memcpy>
 8004afa:	f8a7 8000 	strh.w	r8, [r7]
 8004afe:	2001      	movs	r0, #1
 8004b00:	e8bd 83f8 	ldmia.w	sp!, {r3, r4, r5, r6, r7, r8, r9, pc}
 8004b04:	20009a38 	.word	0x20009a38
 8004b08:	200099a4 	.word	0x200099a4
 8004b0c:	20008994 	.word	0x20008994

08004b10 <USB_CDC_transferRXCallback_EP1>:
 8004b10:	b538      	push	{r3, r4, r5, lr}
 8004b12:	4b0f      	ldr	r3, [pc, #60]	; (8004b50 <USB_CDC_transferRXCallback_EP1+0x40>)
 8004b14:	8b9a      	ldrh	r2, [r3, #28]
 8004b16:	2a01      	cmp	r2, #1
 8004b18:	d018      	beq.n	8004b4c <USB_CDC_transferRXCallback_EP1+0x3c>
 8004b1a:	6a5a      	ldr	r2, [r3, #36]	; 0x24
 8004b1c:	4604      	mov	r4, r0
 8004b1e:	8c18      	ldrh	r0, [r3, #32]
 8004b20:	2500      	movs	r5, #0
 8004b22:	1a12      	subs	r2, r2, r0
 8004b24:	625a      	str	r2, [r3, #36]	; 0x24
 8004b26:	841d      	strh	r5, [r3, #32]
 8004b28:	f7fb fe60 	bl	80007ec <USB_CDC_receive_data>
 8004b2c:	4b09      	ldr	r3, [pc, #36]	; (8004b54 <USB_CDC_transferRXCallback_EP1+0x44>)
 8004b2e:	631d      	str	r5, [r3, #48]	; 0x30
 8004b30:	6b1a      	ldr	r2, [r3, #48]	; 0x30
 8004b32:	f442 2200 	orr.w	r2, r2, #524288	; 0x80000
 8004b36:	631a      	str	r2, [r3, #48]	; 0x30
 8004b38:	6b1a      	ldr	r2, [r3, #48]	; 0x30
 8004b3a:	f042 0240 	orr.w	r2, r2, #64	; 0x40
 8004b3e:	631a      	str	r2, [r3, #48]	; 0x30
 8004b40:	6a1a      	ldr	r2, [r3, #32]
 8004b42:	f042 4204 	orr.w	r2, r2, #2214592512	; 0x84000000
 8004b46:	4620      	mov	r0, r4
 8004b48:	621a      	str	r2, [r3, #32]
 8004b4a:	bd38      	pop	{r3, r4, r5, pc}
 8004b4c:	2000      	movs	r0, #0
 8004b4e:	bd38      	pop	{r3, r4, r5, pc}
 8004b50:	20008940 	.word	0x20008940
 8004b54:	50000b00 	.word	0x50000b00

08004b58 <Reset_Handler>:
 8004b58:	f8df d030 	ldr.w	sp, [pc, #48]	; 8004b8c <LoopFillZerobss+0x10>
 8004b5c:	2100      	movs	r1, #0
 8004b5e:	e003      	b.n	8004b68 <LoopCopyDataInit>

08004b60 <CopyDataInit>:
 8004b60:	4b0b      	ldr	r3, [pc, #44]	; (8004b90 <LoopFillZerobss+0x14>)
 8004b62:	585b      	ldr	r3, [r3, r1]
 8004b64:	5043      	str	r3, [r0, r1]
 8004b66:	3104      	adds	r1, #4

08004b68 <LoopCopyDataInit>:
 8004b68:	480a      	ldr	r0, [pc, #40]	; (8004b94 <LoopFillZerobss+0x18>)
 8004b6a:	4b0b      	ldr	r3, [pc, #44]	; (8004b98 <LoopFillZerobss+0x1c>)
 8004b6c:	1842      	adds	r2, r0, r1
 8004b6e:	429a      	cmp	r2, r3
 8004b70:	d3f6      	bcc.n	8004b60 <CopyDataInit>
 8004b72:	4a0a      	ldr	r2, [pc, #40]	; (8004b9c <LoopFillZerobss+0x20>)
 8004b74:	e002      	b.n	8004b7c <LoopFillZerobss>

08004b76 <FillZerobss>:
 8004b76:	2300      	movs	r3, #0
 8004b78:	f842 3b04 	str.w	r3, [r2], #4

08004b7c <LoopFillZerobss>:
 8004b7c:	4b08      	ldr	r3, [pc, #32]	; (8004ba0 <LoopFillZerobss+0x24>)
 8004b7e:	429a      	cmp	r2, r3
 8004b80:	d3f9      	bcc.n	8004b76 <FillZerobss>
 8004b82:	f7fb fb45 	bl	8000210 <__libc_init_array>
 8004b86:	f7fb fd03 	bl	8000590 <main>
 8004b8a:	4770      	bx	lr
 8004b8c:	20020000 	.word	0x20020000
 8004b90:	08004cec 	.word	0x08004cec
 8004b94:	20000000 	.word	0x20000000
 8004b98:	20000038 	.word	0x20000038
 8004b9c:	20000038 	.word	0x20000038
 8004ba0:	20009a3c 	.word	0x20009a3c

08004ba4 <ADC_IRQHandler>:
 8004ba4:	e7fe      	b.n	8004ba4 <ADC_IRQHandler>
	...

08004ba8 <_init>:
 8004ba8:	b5f8      	push	{r3, r4, r5, r6, r7, lr}
 8004baa:	bf00      	nop
 8004bac:	bcf8      	pop	{r3, r4, r5, r6, r7}
 8004bae:	bc08      	pop	{r3}
 8004bb0:	469e      	mov	lr, r3
 8004bb2:	4770      	bx	lr

08004bb4 <_fini>:
 8004bb4:	b5f8      	push	{r3, r4, r5, r6, r7, lr}
 8004bb6:	bf00      	nop
 8004bb8:	bcf8      	pop	{r3, r4, r5, r6, r7}
 8004bba:	bc08      	pop	{r3}
 8004bbc:	469e      	mov	lr, r3
 8004bbe:	4770      	bx	lr
